
main.elf:     file format elf32-littlearm

Contents of section .text:
 8000000 00400020 19000008 11000008 15000008  .@. ............
 8000010 fee7c046 fee7c046 09480a4a 10b59042  ...F...F.H.J...B
 8000020 03d00949 121a00f0 7df80848 084a9042  ...I....}..H.J.B
 8000030 03d00021 121a00f0 03f900f0 51fdfee7  ...!........Q...
 8000040 00000020 00000020 8c0b0008 00000020  ... ... ....... 
 8000050 00000020 00b50022 83b00b4b 00f00cfc  ... ..."...K....
 8000060 0a4b0022 00f0c0fa 00f00cfd 00230193  .K.".........#..
 8000070 019b9842 05dd019b 01330193 019b8342  ...B.....3.....B
 8000080 f9db03b0 00bdc046 00408f40 30a22641  .......F.@.@0.&A
 8000090 012808d0 002805d1 90222021 d205938a  .(...(..." !....
 80000a0 8b439382 70479022 2021d205 938a0b43  .C..pG." !.....C
 80000b0 9382f7e7 8022174b 52021968 0a438021  .....".KR..h.C.!
 80000c0 1a608902 1a680a42 fcd05a68 12491140  .`...h.B..Zh.I.@
 80000d0 80221203 0a435a60 5a681049 11408022  ."...CZ`Zh.I.@."
 80000e0 52020a43 5a608022 19685204 0a438021  R..CZ`.".hR..C.!
 80000f0 1a60084a 89041368 0b42fcd0 01200849  .`.J...h.B... .I
 8000100 0b680343 0b600321 53688b43 01390b43  .h.C.`.!Sh.C.9.C
 8000110 53607047 00100240 ffffc3ff ff7ffeff  S`pG...@........
 8000120 00200240 0f0052e3 3500009a 013080e1  . .@..R.5....0..
 8000130 030013e3 3e00001a f0412de9 108042e2  ....>....A-...B.
 8000140 2882a0e1 207081e2 087287e0 103081e2  (... p...r...0..
 8000150 10c080e2 106013e5 0c5013e5 104013e9  .....`...P...@..
 8000160 103083e2 070053e1 10600ce5 0c500ce5  .0....S..`...P..
 8000170 10400ce9 10c08ce2 f5ffff1a 01c088e2  .@..............
 8000180 0cc2a0e1 0c0012e3 0fe002e2 0c1081e0  ................
 8000190 0e20a001 0cc080e0 0d00000a 0140a0e1  . ...........@..
 80001a0 04e04ee2 2ee1a0e1 0e618ce0 04304ce2  ..N......a...0L.
 80001b0 045094e4 0450a3e5 060053e1 fbffff1a  .P...P....S.....
 80001c0 01e08ee2 0ee1a0e1 0ec08ce0 0e1081e0  ................
 80001d0 032002e2 000052e3 012042e2 01208212  . ....R.. B.. ..
 80001e0 02308110 01204c12 0300000a 01c0d1e4  .0... L.........
 80001f0 030051e1 01c0e2e5 fbffff1a f041bde8  ..Q..........A..
 8000200 1eff2fe1 000052e3 00c0a0e1 012042e2  ../...R...... B.
 8000210 1eff2f01 012082e2 023081e0 01204ce2  ../.. ...0... L.
 8000220 01c0d1e4 030051e1 01c0e2e5 fbffff1a  ......Q.........
 8000230 1eff2fe1 012042e2 00c0a0e1 f4ffffea  ../.. B.........
 8000240 030010e3 3f00000a 000052e3 012042e2  ....?.....R.. B.
 8000250 1eff2f01 ffc001e2 0030a0e1 020000ea  ../......0......
 8000260 012042e2 010072e3 1eff2f01 01c0c3e4  . B...r.../.....
 8000270 030013e3 f9ffff1a 030052e3 2700009a  ..........R.'...
 8000280 30402de9 ffe001e2 0ee48ee1 0f0052e3  0@-...........R.
 8000290 0ee88ee1 2d00009a 104042e2 2442a0e1  ....-....@B.$B..
 80002a0 205083e2 045285e0 10c083e2 10e00ce5   P...R..........
 80002b0 0ce00ce5 08e00ce5 04e00ce5 10c08ce2  ................
 80002c0 05005ce1 f8ffff1a 01c084e2 0c0012e3  ..\.............
 80002d0 0cc283e0 0f2002e2 1800000a 043042e2  ..... .......0B.
 80002e0 0330c3e3 043083e2 03308ce0 04e08ce4  .0...0...0......
 80002f0 0c0053e1 fcffff1a 032002e2 000052e3  ..S...... ....R.
 8000300 0400000a ff1001e2 022083e0 0110c3e4  ......... ......
 8000310 030052e1 fcffff1a 3040bde8 1eff2fe1  ..R.....0@..../.
 8000320 000052e3 1eff2f01 ff1001e2 022083e0  ..R.../...... ..
 8000330 0110c3e4 030052e1 fcffff1a 1eff2fe1  ......R......./.
 8000340 0c30a0e1 ecffffea 0030a0e1 c9ffffea  .0.......0......
 8000350 03c0a0e1 e0ffffea 70402de9 ffc0a0e3  ........p@-.....
 8000360 07cc8ce3 214a1ce0 235a1c10 0c003411  ....!J..#Z....4.
 8000370 0c003511 7500000b 054084e0 036021e0  ..5.u....@...`!.
 8000380 8c1ac1e1 8c3ac3e1 015690e1 03569211  .....:...V...V..
 8000390 011681e3 013683e3 1d00000a 90c28ee0  .....6..........
 80003a0 0050a0e3 91e2a5e0 022106e2 90e3a5e0  .P.......!......
 80003b0 0060a0e3 9153a6e0 00003ce3 01e08e13  .`...S....<.....
 80003c0 ff4044e2 020c56e3 034cc4e2 0200002a  .@D...V..L.....*
 80003d0 8ee0b0e1 0550b5e0 0660a6e0 861582e1  .....P...`......
 80003e0 a51a81e1 8505a0e1 ae0a80e1 8ee5a0e1  ................
 80003f0 fdc054e2 070c5c83 1100008a 02015ee3  ..T...\.......^.
 8000400 a0e0b001 0000b0e2 041aa1e0 7040bde8  ............p@..
 8000410 1eff2fe1 026106e2 011086e1 020080e1  ../..a..........
 8000420 031021e0 ac4054e0 0c5074c0 041a81c1  ..!..@T..Pt.....
 8000430 7040bdc8 1eff2fc1 011681e3 00e0a0e3  p@..../.........
 8000440 014054e2 5d0000ca 360074e3 0000a0d3  .@T.]...6.t.....
 8000450 021101d2 7040bdd8 1eff2fd1 004064e2  ....p@..../..@d.
 8000460 204054e2 1a0000aa 0c4094e2 0c0000ca   @T......@......
 8000470 144084e2 205064e2 1035a0e1 3004a0e1  .@.. Pd..5..0...
 8000480 110580e1 022101e2 0211c1e3 a30f90e0  .....!..........
 8000490 3114a2e0 83e09ee1 a30fc001 7040bde8  1...........p@..
 80004a0 1eff2fe1 0c4064e2 205064e2 1034a0e1  ../..@d. Pd..4..
 80004b0 3005a0e1 110480e1 021101e2 a30f90e0  0...............
 80004c0 0010a1e2 83e09ee1 a30fc001 7040bde8  ............p@..
 80004d0 1eff2fe1 205064e2 10e58ee1 3034a0e1  ../. Pd.....04..
 80004e0 113583e1 3104a0e1 021101e2 3104c0e1  .5..1.......1...
 80004f0 a30f80e0 83e09ee1 a30fc001 7040bde8  ............p@..
 8000500 1eff2fe1 000034e3 0800001a 026101e2  ../...4......a..
 8000510 8000b0e1 0110a1e0 010611e3 01404402  .............@D.
 8000520 faffff0a 061081e1 000035e3 1eff2f11  ..........5.../.
 8000530 026103e2 8220b0e1 0330a3e0 010613e3  .a... ...0......
 8000540 01504502 faffff0a 063083e1 1eff2fe1  .PE......0..../.
 8000550 0c0034e1 235a0ce0 0c003511 0700000a  ..4.#Z....5.....
 8000560 816090e1 83609211 e5ffff1a 031021e0  .`...`........!.
 8000570 021101e2 0000a0e3 7040bde8 1eff2fe1  ........p@..../.
 8000580 816090e1 0200a001 0310a001 83609211  .`...........`..
 8000590 1000000a 0c0034e1 0100001a 016690e1  ......4......f..
 80005a0 0c00001a 0c0035e1 0300001a 036692e1  ......5......f..
 80005b0 0200a011 0310a011 0600001a 031021e0  ..............!.
 80005c0 021101e2 7f1481e3 0f1681e3 0000a0e3  ................
 80005d0 7040bde8 1eff2fe1 7f1481e3 3e1781e3  p@..../.....>...
 80005e0 7040bde8 1eff2fe1 70402de9 ffc0a0e3  p@..../.p@-.....
 80005f0 07cc8ce3 214a1ce0 235a1c10 0c003411  ....!J..#Z....4.
 8000600 0c003511 7500000b 054084e0 036021e0  ..5.u....@...`!.
 8000610 8c1ac1e1 8c3ac3e1 015690e1 03569211  .....:...V...V..
 8000620 011681e3 013683e3 1d00000a 90c28ee0  .....6..........
 8000630 0050a0e3 91e2a5e0 022106e2 90e3a5e0  .P.......!......
 8000640 0060a0e3 9153a6e0 00003ce3 01e08e13  .`...S....<.....
 8000650 ff4044e2 020c56e3 034cc4e2 0200002a  .@D...V..L.....*
 8000660 8ee0b0e1 0550b5e0 0660a6e0 861582e1  .....P...`......
 8000670 a51a81e1 8505a0e1 ae0a80e1 8ee5a0e1  ................
 8000680 fdc054e2 070c5c83 1100008a 02015ee3  ..T...\.......^.
 8000690 a0e0b001 0000b0e2 041aa1e0 7040bde8  ............p@..
 80006a0 1eff2fe1 026106e2 011086e1 020080e1  ../..a..........
 80006b0 031021e0 ac4054e0 0c5074c0 041a81c1  ..!..@T..Pt.....
 80006c0 7040bdc8 1eff2fc1 011681e3 00e0a0e3  p@..../.........
 80006d0 014054e2 5d0000ca 360074e3 0000a0d3  .@T.]...6.t.....
 80006e0 021101d2 7040bdd8 1eff2fd1 004064e2  ....p@..../..@d.
 80006f0 204054e2 1a0000aa 0c4094e2 0c0000ca   @T......@......
 8000700 144084e2 205064e2 1035a0e1 3004a0e1  .@.. Pd..5..0...
 8000710 110580e1 022101e2 0211c1e3 a30f90e0  .....!..........
 8000720 3114a2e0 83e09ee1 a30fc001 7040bde8  1...........p@..
 8000730 1eff2fe1 0c4064e2 205064e2 1034a0e1  ../..@d. Pd..4..
 8000740 3005a0e1 110480e1 021101e2 a30f90e0  0...............
 8000750 0010a1e2 83e09ee1 a30fc001 7040bde8  ............p@..
 8000760 1eff2fe1 205064e2 10e58ee1 3034a0e1  ../. Pd.....04..
 8000770 113583e1 3104a0e1 021101e2 3104c0e1  .5..1.......1...
 8000780 a30f80e0 83e09ee1 a30fc001 7040bde8  ............p@..
 8000790 1eff2fe1 000034e3 0800001a 026101e2  ../...4......a..
 80007a0 8000b0e1 0110a1e0 010611e3 01404402  .............@D.
 80007b0 faffff0a 061081e1 000035e3 1eff2f11  ..........5.../.
 80007c0 026103e2 8220b0e1 0330a3e0 010613e3  .a... ...0......
 80007d0 01504502 faffff0a 063083e1 1eff2fe1  .PE......0..../.
 80007e0 0c0034e1 235a0ce0 0c003511 0700000a  ..4.#Z....5.....
 80007f0 816090e1 83609211 e5ffff1a 031021e0  .`...`........!.
 8000800 021101e2 0000a0e3 7040bde8 1eff2fe1  ........p@..../.
 8000810 816090e1 0200a001 0310a001 83609211  .`...........`..
 8000820 1000000a 0c0034e1 0100001a 016690e1  ......4......f..
 8000830 0c00001a 0c0035e1 0300001a 036692e1  ......5......f..
 8000840 0200a011 0310a011 0600001a 031021e0  ..............!.
 8000850 021101e2 7f1481e3 0f1681e3 0000a0e3  ................
 8000860 7040bde8 1eff2fe1 7f1481e3 3e1781e3  p@..../.....>...
 8000870 7040bde8 1eff2fe1 70402de9 ffc0a0e3  p@..../.p@-.....
 8000880 07cc8ce3 214a1ce0 235a1c10 0c003411  ....!J..#Z....4.
 8000890 0c003511 5e00000b 054044e0 03e021e0  ..5.^....@D...!.
 80008a0 035692e1 0116a0e1 4c00000a 0336a0e1  .V......L....6..
 80008b0 0152a0e3 233285e1 223c83e1 0224a0e1  .R..#2.."<...$..
 80008c0 215285e1 205c85e1 0064a0e1 02110ee2  !R.. \...d......
 80008d0 030055e1 02005601 fd40a4e2 034c84e2  ..U...V..@...L..
 80008e0 0100002a a330b0e1 6220a0e1 026056e0  ...*.0..b ...`V.
 80008f0 0350c5e0 a330b0e1 6220a0e1 0106a0e3  .P...0..b ......
 8000900 02c7a0e3 02e056e0 03e0d5e0 02604620  ......V......`F 
 8000910 0e50a021 0c008021 a330b0e1 6220a0e1  .P.!...!.0..b ..
 8000920 02e056e0 03e0d5e0 02604620 0e50a021  ..V......`F .P.!
 8000930 ac008021 a330b0e1 6220a0e1 02e056e0  ...!.0..b ....V.
 8000940 03e0d5e0 02604620 0e50a021 2c018021  .....`F .P.!,..!
 8000950 a330b0e1 6220a0e1 02e056e0 03e0d5e0  .0..b ....V.....
 8000960 02604620 0e50a021 ac018021 06e095e1  .`F .P.!...!....
 8000970 0d00000a 0552a0e1 265e85e1 0662a0e1  .....R..&^...b..
 8000980 8331a0e1 a23e83e1 8221a0e1 2cc2b0e1  .1...>...!..,...
 8000990 dbffff1a 010611e3 0600001a 001081e1  ................
 80009a0 0000a0e3 02c1a0e3 d5ffffea 010611e3  ................
 80009b0 00108101 0000a003 fdc054e2 070c5c83  ..........T...\.
 80009c0 43ffff8a 03c055e0 02c05600 a0c0b001  C.....U...V.....
 80009d0 0000b0e2 041aa1e0 7040bde8 1eff2fe1  ........p@..../.
 80009e0 02e10ee2 21168ee1 ac4094e0 0c5074c0  ....!....@...Pt.
 80009f0 041a81c1 7040bdc8 1eff2fc1 011681e3  ....p@..../.....
 8000a00 00e0a0e3 014054e2 31ffffea 06e085e1  .....@T.1.......
 8000a10 2fffffea 235a0ce0 0c0034e1 0c003501  /...#Z....4...5.
 8000a20 90ffff0a 0c0034e1 0600001a 014690e1  ......4......F..
 8000a30 8cffff1a 0c0035e1 83ffff1a 0200a0e1  ......5.........
 8000a40 0310a0e1 87ffffea 0c0035e1 0400001a  ..........5.....
 8000a50 035692e1 68ffff0a 0200a0e1 0310a0e1  .V..h...........
 8000a60 80ffffea 816090e1 83609211 48ffff1a  .....`...`..H...
 8000a70 814090e1 74ffff1a 835092e1 5effff1a  .@..t....P..^...
 8000a80 78ffffea 8120a0e1 022692e2 0c00002a  x.... ...&.....*
 8000a90 0900005a 3e3ee0e3 c22a53e0 0a00009a  ...Z>>...*S.....
 8000aa0 8135a0e1 023183e3 a03a83e1 020111e3  .5...1...:......
 8000ab0 3302a0e1 00006012 1eff2fe1 0000a0e3  3.....`.../.....
 8000ac0 1eff2fe1 010690e1 0200001a 020111e2  ../.............
 8000ad0 0201e003 1eff2fe1 0000a0e3 1eff2fe1  ....../......./.
Contents of section .text.startup:
 8000ae0 10b5fff7 e7fa8022 234b9202 d9691143  ......."#K...i.C
 8000af0 d9615969 0a435a61 90233021 db051a68  .aYi.CZa.#0!...h
 8000b00 8a431039 0a431a60 1a6a1c49 11408022  .C.9.C.`.j.I.@."
 8000b10 52000a43 c0211a62 1a688a43 40390a43  R..C.!.b.h.C@9.C
 8000b20 1a601a6a 16491140 80225201 0a431a62  .`.j.I.@."R..C.b
 8000b30 1a681449 0a401a60 80221968 d2000a43  .h.I.@.`.".h...C
 8000b40 1a608b23 0c21104a 5b009381 13680b43  .`.#.!.J[....h.C
 8000b50 13601368 0b390b43 13601f31 d3691942  .`.h.9.C.`.1.i.B
 8000b60 fcd0938c dbb21800 61381928 f6d8203b  ........a8.(.. ;
 8000b70 dbb21385 f2e7c046 00100240 fff0ffff  .......F...@....
 8000b80 ff0fffff fff3ffff 00440040           .........D.@    
Contents of section .comment:
 0000 4743433a 20283135 3a392d32 3031392d  GCC: (15:9-2019-
 0010 71342d30 7562756e 74753129 20392e32  q4-0ubuntu1) 9.2
 0020 2e312032 30313931 30323520 2872656c  .1 20191025 (rel
 0030 65617365 29205b41 524d2f61 726d2d39  ease) [ARM/arm-9
 0040 2d627261 6e636820 72657669 73696f6e  -branch revision
 0050 20323737 3539395d 00474343 3a202831   277599].GCC: (1
 0060 353a382d 32303139 2d71332d 31292038  5:8-2019-q3-1) 8
 0070 2e332e31 20323031 39303730 33202872  .3.1 20190703 (r
 0080 656c6561 73652920 5b676363 2d382d62  elease) [gcc-8-b
 0090 72616e63 68207265 76697369 6f6e2032  ranch revision 2
 00a0 37333032 375d00                      73027].         
Contents of section .ARM.attributes:
 0000 41300000 00616561 62690001 26000000  A0...aeabi..&...
 0010 0541524d 2076364b 00060907 4d080109  .ARM v6K....M...
 0020 01120414 01150117 03180119 011a011e  ................
 0030 02                                   .               
Contents of section .debug_info:
 0000 310f0000 04000000 00000401 21060000  1...........!...
 0010 0cbd0100 00360300 00240100 081c0100  .....6...$......
 0020 00000000 00020405 696e7400 034a0000  ........int..J..
 0030 0002d817 38000000 040407b9 00000005  ....8...........
 0040 e3030000 02480118 38000000 0408054a  .....H..8......J
 0050 01000004 08043804 000005aa 04000002  ......8.........
 0060 65011738 00000004 01060305 00000401  e..8............
 0070 08010500 00040205 15050000 0402079e  ................
 0080 03000004 04054f01 00000683 00000004  ......O.........
 0090 0407b400 00000408 07af0000 0003a304  ................
 00a0 0000032e 0e830000 0003fb05 00000374  ...............t
 00b0 0e830000 00070403 a503d700 000008d2  ................
 00c0 03000003 a70c5a00 000008f9 02000003  ......Z.........
 00d0 a813d700 00000009 6e000000 e7000000  ........n.......
 00e0 0a380000 0003000b 0803a209 0b010000  .8..............
 00f0 0cdc0500 0003a407 25000000 000ce405  ........%.......
 0100 000003a9 05b50000 00040003 37050000  ............7...
 0110 03aa03e7 0000000d 040e1701 000003f8  ................
 0120 06000004 16198f00 000003d6 04000005  ................
 0130 0c0d2500 0000039a 02000004 231b2a01  ..%.........#.*.
 0140 00000fa3 02000018 0434089c 0100000c  .........4......
 0150 63050000 0436139c 01000000 105f6b00  c....6......._k.
 0160 04370725 00000004 0cce0500 0004370b  .7.%..........7.
 0170 25000000 080c9803 00000437 14250000  %..........7.%..
 0180 000c0c4d 07000004 371b2500 00001010  ...M....7.%.....
 0190 5f780004 380ba201 00001400 11044201  _x..8.........B.
 01a0 0000091e 010000b2 0100000a 38000000  ............8...
 01b0 00000fd0 02000024 043c0835 0200000c  .......$.<.5....
 01c0 2c010000 043e0925 00000000 0c0a0600  ,....>.%........
 01d0 00043f09 25000000 040c6401 00000440  ..?.%.....d....@
 01e0 09250000 00080ce5 07000004 41092500  .%..........A.%.
 01f0 00000c0c 6c040000 04420925 00000010  ....l....B.%....
 0200 0c0c0400 00044309 25000000 140c5207  ......C.%.....R.
 0210 00000444 09250000 00180c1f 05000004  ...D.%..........
 0220 45092500 00001c0c 91070000 04460925  E.%..........F.%
 0230 00000020 00127301 00000801 044f087a  ... ..s......O.z
 0240 0200000c 51020000 04500a7a 02000000  ....Q....P.z....
 0250 0c000000 00045109 7a020000 8013cb06  ......Q.z.......
 0260 00000453 0a1e0100 00000113 b5010000  ...S............
 0270 04560a1e 01000004 01000917 0100008a  .V..............
 0280 0200000a 38000000 1f000fb0 0600008c  ....8...........
 0290 045a08cc 0200000c 63050000 045b12cc  .Z......c....[..
 02a0 02000000 0c8d0500 00045c06 25000000  ..........\.%...
 02b0 040c6502 0000045d 09d20200 00080cd5  ..e....]........
 02c0 02000004 5e20e902 00008800 11048a02  ....^ ..........
 02d0 000009e2 020000e2 0200000a 38000000  ............8...
 02e0 1f001104 e8020000 14110435 0200000f  ...........5....
 02f0 29050000 08047a08 17030000 0c5e0100  ).....z......^..
 0300 00047b11 17030000 000c3800 0000047c  ..{.......8....|
 0310 06250000 00040011 046e0000 000f2003  .%.......n.... .
 0320 00002004 9e089003 0000105f 7000049f  .. ........_p...
 0330 12170300 0000105f 720004a0 07250000  ......._r....%..
 0340 0004105f 770004a1 07250000 00080cae  ..._w....%......
 0350 01000004 a2097500 00000c0c 47070000  ......u.....G...
 0360 04a30975 0000000e 105f6266 0004a411  ...u....._bf....
 0370 ef020000 100cc600 000004a5 07250000  .............%..
 0380 00180c83 00000004 a712d804 00001c00  ................
 0390 061d0300 0015d906 00006004 790108d8  ..........`.y...
 03a0 04000016 03060000 047d0107 25000000  .........}..%...
 03b0 00164d04 00000482 010b3007 00000416  ..M.......0.....
 03c0 64040000 04820114 30070000 0816bb07  d.......0.......
 03d0 00000482 011e3007 00000c16 88050000  ......0.........
 03e0 04840108 25000000 10166500 00000486  ....%.....e.....
 03f0 01094406 00001416 98040000 04880107  ..D.............
 0400 25000000 1816a305 0000048a 01072500  %.............%.
 0410 00001c16 16000000 048b0116 1a090000  ................
 0420 20175f6d 7000048d 01122009 00002416   ._mp..... ...$.
 0430 99050000 048f010a 31090000 2816ab02  ........1...(...
 0440 00000491 01072500 00002c16 18030000  ......%...,.....
 0450 04940107 25000000 30162202 00000495  ....%...0.".....
 0460 01094406 00003416 c3070000 04970113  ..D...4.........
 0470 37090000 38169c07 00000498 01103d09  7...8.........=.
 0480 00003c16 bd030000 04990109 44060000  ..<.........D...
 0490 40167107 0000049c 010c4e09 00004416  @.q.......N...D.
 04a0 89010000 04a40110 f1060000 48166e01  ............H.n.
 04b0 000004a5 010b3007 00005416 24040000  ......0...T.$...
 04c0 04a60117 5a090000 5816b103 000004a7  ....Z...X.......
 04d0 01094406 00005c00 11049503 000006d8  ..D...\.........
 04e0 0400000f 42050000 6804ba08 26060000  ....B...h...&...
 04f0 105f7000 04bb1217 03000000 105f7200  ._p.........._r.
 0500 04bc0725 00000004 105f7700 04bd0725  ...%....._w....%
 0510 00000008 0cae0100 0004be09 75000000  ............u...
 0520 0c0c4707 000004bf 09750000 000e105f  ..G......u....._
 0530 62660004 c011ef02 0000100c c6000000  bf..............
 0540 04c10725 00000018 0c830000 0004c412  ...%............
 0550 d8040000 1c0c8101 000004c8 0a170100  ................
 0560 00200cc0 02000004 ca1d5606 0000240c  . ........V...$.
 0570 05040000 04cc1d80 06000028 0cec0500  ...........(....
 0580 0004cf0d a4060000 2c0cab07 000004d0  ........,.......
 0590 09be0600 0030105f 75620004 d311ef02  .....0._ub......
 05a0 00003410 5f757000 04d41217 0300003c  ..4._up........<
 05b0 105f7572 0004d507 25000000 400c5801  ._ur....%...@.X.
 05c0 000004d8 11c40600 00440c8b 07000004  .........D......
 05d0 d911d406 00004710 5f6c6200 04dc11ef  ......G._lb.....
 05e0 02000048 0cf50100 0004df07 25000000  ...H........%...
 05f0 500c2a02 000004e0 0a9d0000 00540cf7  P.*..........T..
 0600 03000004 e70c3601 0000580c 55050000  ......6...X.U...
 0610 04e90e0b 0100005c 0cfd0300 0004ea09  .......\........
 0620 25000000 64001825 00000044 06000019  %...d..%...D....
 0630 d8040000 19170100 00194406 00001925  ..........D....%
 0640 00000000 11044a06 00000401 080a0500  ......J.........
 0650 00064a06 00001104 26060000 18250000  ..J.....&....%..
 0660 007a0600 0019d804 00001917 01000019  .z..............
 0670 7a060000 19250000 00001104 51060000  z....%......Q...
 0680 11045c06 000018a9 000000a4 06000019  ..\.............
 0690 d8040000 19170100 0019a900 00001925  ...............%
 06a0 00000000 11048606 00001825 000000be  ...........%....
 06b0 06000019 d8040000 19170100 00001104  ................
 06c0 aa060000 096e0000 00d40600 000a3800  .....n........8.
 06d0 00000200 096e0000 00e40600 000a3800  .....n........8.
 06e0 00000000 05300500 00042401 1ae30400  .....0....$.....
 06f0 00155c07 00000c04 2801082a 07000016  ..\.....(..*....
 0700 63050000 042a0111 2a070000 00168903  c....*..*.......
 0710 0000042b 01072500 00000416 0f050000  ...+..%.........
 0720 042c010b 30070000 08001104 f1060000  .,..0...........
 0730 1104e406 00001551 00000018 04440108  .......Q.....D..
 0740 7d070000 16d60500 00044501 127d0700  }.........E..}..
 0750 000016b8 06000004 4601127d 07000006  ........F..}....
 0760 16f30600 00044701 127c0000 000c165e  ......G..|.....^
 0770 05000004 4a012496 00000010 00097c00  ....J.$.......|.
 0780 00008d07 00000a38 00000002 0015a701  .......8........
 0790 00001004 5d0108d4 07000016 ca030000  ....]...........
 07a0 04600113 9c010000 0016c602 00000461  .`.............a
 07b0 01072500 00000416 d6070000 04620113  ..%..........b..
 07c0 9c010000 0816c304 00000463 0114d407  ...........c....
 07d0 00000c00 11049c01 000015d4 06000050  ...............P
 07e0 04670108 83080000 16be0600 00046a01  .g............j.
 07f0 09440600 0000167b 05000004 6b010e0b  .D.....{....k...
 0800 01000004 161e0100 00046c01 0e0b0100  ..........l.....
 0810 000c16c8 07000004 6d010e0b 01000014  ........m.......
 0820 16670700 00046e01 08830800 001c1600  .g....n.........
 0830 07000004 6f010725 00000024 16430200  ....o..%...$.C..
 0840 00047001 0e0b0100 002816f0 00000004  ..p......(......
 0850 71010e0b 01000030 16320200 00047201  q......0.2....r.
 0860 0e0b0100 0038168f 00000004 73010e0b  .....8......s...
 0870 01000040 169e0000 00047401 0e0b0100  ...@......t.....
 0880 00480009 4a060000 93080000 0a380000  .H..J........8..
 0890 00070012 d8000000 6c0106b2 081a0900  ........l.......
 08a0 000c0d07 000006b4 0bf80d00 00000c92  ................
 08b0 05000006 b50b320e 0000e00c 5e020000  ......2.....^...
 08c0 06b70b61 0e0000e4 0ccf0000 0006b90a  ...a............
 08d0 25000000 e80c2e00 000006ba 0b440600  %............D..
 08e0 00ec0c89 00000006 bb12d209 0000f013  ................
 08f0 d8030000 06bd0b67 0e000028 01132a04  .......g...(..*.
 0900 000006be 0b770e00 002a0113 12020000  .....w...*......
 0910 06bf0b77 0e00004a 01001104 93080000  ...w...J........
 0920 11048d07 00001a31 09000019 d8040000  .......1........
 0930 00110426 09000011 04360700 001104b2  ...&.....6......
 0940 0100001a 4e090000 19250000 00001104  ....N....%......
 0950 54090000 11044309 00001104 da070000  T.....C.........
 0960 1b440400 0004cf01 22900300 001b5b04  .D......".....[.
 0970 000004d0 01229003 00001bb2 07000004  ....."..........
 0980 d1012290 0300001b 2f070000 04330317  .."...../....3..
 0990 d8040000 1b280700 00043403 1dde0400  .....(....4.....
 09a0 001ba906 00000446 0318cc02 00001104  .......F........
 09b0 b9090000 0eae0900 001c1d7b 04000007  ...........{....
 09c0 670e4406 00000338 05000008 56140b01  g.D....8....V...
 09d0 00000f89 00000038 092a0818 0b00000c  .......8.*......
 09e0 04030000 092c0944 06000000 0cc00500  .....,.D........
 09f0 00092d09 44060000 040c9102 0000092e  ..-.D...........
 0a00 09440600 00080c0e 01000009 2f094406  .D........../.D.
 0a10 00000c0c 1e000000 09300944 06000010  .........0.D....
 0a20 0c000300 00093109 44060000 140cbc05  ......1.D.......
 0a30 00000932 09440600 00180c8d 02000009  ...2.D..........
 0a40 33094406 00001c0c 16040000 09340944  3.D..........4.D
 0a50 06000020 0c900300 00093509 44060000  ... ......5.D...
 0a60 240c7b07 00000936 084a0600 00280c7f  $.{....6.J...(..
 0a70 07000009 37084a06 0000290c eb020000  ....7.J...).....
 0a80 0938084a 0600002a 0c890400 00093908  .8.J...*......9.
 0a90 4a060000 2b0cb504 0000093a 084a0600  J...+......:.J..
 0aa0 002c0c74 00000009 3b084a06 00002d0c  .,.t....;.J...-.
 0ab0 81020000 093c084a 0600002e 0c1c0700  .....<.J........
 0ac0 00093d08 4a060000 2f0cb104 0000093e  ..=.J.../......>
 0ad0 084a0600 00300c70 00000009 3f084a06  .J...0.p....?.J.
 0ae0 0000310c 18070000 0940084a 06000032  ..1......@.J...2
 0af0 0ce70200 00094108 4a060000 330c8504  ......A.J...3...
 0b00 00000942 084a0600 00340c7d 02000009  ...B.J...4.}....
 0b10 43084a06 00003500 0f4a0500 00080639  C.J...5..J.....9
 0b20 08400b00 000c1a02 0000063b 0f7a0600  .@.........;.z..
 0b30 00000cd8 03000006 3c0f7a06 00000400  ........<.z.....
 0b40 06180b00 001d9101 00000642 20400b00  ...........B @..
 0b50 000f0402 00003c06 4408220c 00000c0e  ......<.D.".....
 0b60 01000006 460f7a06 0000000c 1e000000  ....F.z.........
 0b70 06470f7a 06000004 0c000300 0006480f  .G.z..........H.
 0b80 7a060000 080cbc05 00000649 0f7a0600  z..........I.z..
 0b90 000c0c8d 02000006 4a0f7a06 0000100c  ........J.z.....
 0ba0 16040000 064b0f7a 06000014 0c900300  .....K.z........
 0bb0 00064c0f 7a060000 180c7b07 0000064d  ..L.z.....{....M
 0bc0 0f7a0600 001c0c7f 07000006 4e0f7a06  .z..........N.z.
 0bd0 0000200c eb020000 064f0f7a 06000024  .. ......O.z...$
 0be0 0c890400 0006500f 7a060000 280cb504  ......P.z...(...
 0bf0 00000651 0f7a0600 002c0c74 00000006  ...Q.z...,.t....
 0c00 520f7a06 0000300c 81020000 06530f7a  R.z...0......S.z
 0c10 06000034 0c1c0700 0006540f 7a060000  ...4......T.z...
 0c20 38000651 0b00001d e0060000 06652322  8..Q.........e#"
 0c30 0c00000f e3000000 0c066708 680c0000  ..........g.h...
 0c40 0c040300 0006690f 7a060000 000cc005  ......i.z.......
 0c50 0000066a 0f7a0600 00040c91 02000006  ...j.z..........
 0c60 6b0f7a06 00000800 06330c00 001d0c00  k.z......3......
 0c70 00000672 22680c00 000f3501 0000fc06  ...r"h....5.....
 0c80 7408640d 0000106d 6f6e0006 760f690d  t.d....mon..v.i.
 0c90 0000000c df070000 06770f69 0d000030  .........w.i...0
 0ca0 0c570700 0006780f 790d0000 600c7305  .W....x.y...`.s.
 0cb0 00000679 0f790d00 007c0cba 02000006  ...y.y...|......
 0cc0 7a0f7a06 0000980c 75040000 067b0f7a  z.z.....u....{.z
 0cd0 0600009c 0c120300 00067c0f 7a060000  ..........|.z...
 0ce0 a00ca101 0000067d 0f890d00 00a40c2d  .......}.......-
 0cf0 03000006 7e0f7a06 0000ac0c db070000  ....~.z.........
 0d00 067f0f69 0d0000b0 0ccd0400 0006800f  ...i............
 0d10 7a060000 e00cf205 00000681 0f7a0600  z............z..
 0d20 00e41065 72610006 820f7a06 0000e80c  ...era....z.....
 0d30 f7040000 06830f7a 060000ec 0ceb0300  .......z........
 0d40 0006840f 7a060000 f00c6905 00000685  ....z.....i.....
 0d50 0f7a0600 00f40c3f 01000006 860f7a06  .z.....?......z.
 0d60 0000f800 06790c00 00097a06 0000790d  .....y....z...y.
 0d70 00000a38 0000000b 00097a06 0000890d  ...8......z.....
 0d80 00000a38 00000006 00097a06 0000990d  ...8......z.....
 0d90 00000a38 00000001 001dff00 0000069a  ...8............
 0da0 1f640d00 000f1306 00001006 9c08e70d  .d..............
 0db0 00000cef 04000006 9e0f7a06 0000000c  ..........z.....
 0dc0 54040000 069f0f7a 06000004 0ce80400  T......z........
 0dd0 0006a00f 7a060000 080cfe01 000006a1  ....z...........
 0de0 0f7a0600 000c0006 a50d0000 1d6a0200  .z...........j..
 0df0 0006aa23 e70d0000 094a0600 000e0e00  ...#.....J......
 0e00 000a3800 0000060a 38000000 1f001825  ..8.....8......%
 0e10 0000002c 0e000019 d8040000 19440600  ...,.........D..
 0e20 00193f00 0000192c 0e000000 1104c609  ..?....,........
 0e30 00001104 0e0e0000 18250000 005b0e00  .........%...[..
 0e40 0019d804 0000195b 0e000019 7a060000  .......[....z...
 0e50 192c0000 00192c0e 00000011 043f0000  .,....,......?..
 0e60 00110438 0e000009 4a060000 770e0000  ...8....J...w...
 0e70 0a380000 00010009 4a060000 870e0000  .8......J.......
 0e80 0a380000 001f001e 3e000000 0a1f0917  .8......>.......
 0e90 01000024 0100081c 01000001 9c280f00  ...$.........(..
 0ea0 001f4500 00000131 1a190100 00015020  ..E....1......P 
 0eb0 59020000 013219b4 0900000a 00000000  Y....2..........
 0ec0 00000020 62070000 0133092c 00000059  ... b....3.,...Y
 0ed0 0000004f 00000021 64737400 01420944  ...O...!dst..B.D
 0ee0 060000a4 0000009a 00000021 73726300  ...........!src.
 0ef0 01430f7a 060000f1 000000e3 00000022  .C.z..........."
 0f00 59000000 01440928 0f00004f 0100004d  Y....D.(...O...M
 0f10 01000022 3b070000 01450f2e 0f000074  ...";....E.....t
 0f20 01000062 01000000 11048300 00001104  ...b............
 0f30 8a000000 001d0f00 000400e5 01000004  ................
 0f40 01210600 000cef07 00003508 00004002  .!........5...@.
 0f50 00081801 00006302 00000204 05696e74  ......c......int
 0f60 00034a00 000002d8 17380000 00040407  ..J......8......
 0f70 b9000000 05e30300 00024801 18380000  ..........H..8..
 0f80 00040805 4a010000 04080438 04000005  ....J......8....
 0f90 aa040000 02650117 38000000 04010603  .....e..8.......
 0fa0 05000004 01080105 00000402 05150500  ................
 0fb0 00040207 9e030000 0404054f 01000004  ...........O....
 0fc0 0407b400 00000408 07af0000 0003a304  ................
 0fd0 0000032e 0e830000 0003fb05 00000374  ...............t
 0fe0 0e830000 00060403 a503d200 000007d2  ................
 0ff0 03000003 a70c5a00 000007f9 02000003  ......Z.........
 1000 a813d200 00000008 6e000000 e2000000  ........n.......
 1010 09380000 0003000a 0803a209 06010000  .8..............
 1020 0bdc0500 0003a407 25000000 000be405  ........%.......
 1030 000003a9 05b00000 00040003 37050000  ............7...
 1040 03aa03e2 0000000c 0403f806 00000416  ................
 1050 198a0000 0003d604 0000050c 0d250000  .............%..
 1060 00039a02 00000423 1b200100 000da302  .......#. ......
 1070 00001804 34089201 00000b63 05000004  ....4......c....
 1080 36139201 0000000e 5f6b0004 37072500  6......._k..7.%.
 1090 0000040b ce050000 04370b25 00000008  .........7.%....
 10a0 0b980300 00043714 25000000 0c0b4d07  ......7.%.....M.
 10b0 00000437 1b250000 00100e5f 78000438  ...7.%....._x..8
 10c0 0b980100 0014000f 04380100 00081401  .........8......
 10d0 0000a801 00000938 00000000 000dd002  .......8........
 10e0 00002404 3c082b02 00000b2c 01000004  ..$.<.+....,....
 10f0 3e092500 0000000b 0a060000 043f0925  >.%..........?.%
 1100 00000004 0b640100 00044009 25000000  .....d....@.%...
 1110 080be507 00000441 09250000 000c0b6c  .......A.%.....l
 1120 04000004 42092500 0000100b 0c040000  ....B.%.........
 1130 04430925 00000014 0b520700 00044409  .C.%.....R....D.
 1140 25000000 180b1f05 00000445 09250000  %..........E.%..
 1150 001c0b91 07000004 46092500 00002000  ........F.%... .
 1160 10730100 00080104 4f087002 00000b51  .s......O.p....Q
 1170 02000004 500a7002 0000000b 00000000  ....P.p.........
 1180 04510970 02000080 11cb0600 0004530a  .Q.p..........S.
 1190 14010000 000111b5 01000004 560a1401  ............V...
 11a0 00000401 00081201 00008002 00000938  ...............8
 11b0 0000001f 000db006 00008c04 5a08c202  ............Z...
 11c0 00000b63 05000004 5b12c202 0000000b  ...c....[.......
 11d0 8d050000 045c0625 00000004 0b650200  .....\.%.....e..
 11e0 00045d09 c8020000 080bd502 0000045e  ..]............^
 11f0 20df0200 0088000f 04800200 0008d802   ...............
 1200 0000d802 00000938 0000001f 000f04de  .......8........
 1210 02000012 0f042b02 00000d29 05000008  ......+....)....
 1220 047a080d 0300000b 5e010000 047b110d  .z......^....{..
 1230 03000000 0b380000 00047c06 25000000  .....8....|.%...
 1240 04000f04 6e000000 0d200300 0020049e  ....n.... ... ..
 1250 08860300 000e5f70 00049f12 0d030000  ......_p........
 1260 000e5f72 0004a007 25000000 040e5f77  .._r....%....._w
 1270 0004a107 25000000 080bae01 000004a2  ....%...........
 1280 09750000 000c0b47 07000004 a3097500  .u.....G......u.
 1290 00000e0e 5f626600 04a411e5 02000010  ...._bf.........
 12a0 0bc60000 0004a507 25000000 180b8300  ........%.......
 12b0 000004a7 12ce0400 001c0013 13030000  ................
 12c0 14d90600 00600479 0108ce04 00001503  .....`.y........
 12d0 06000004 7d010725 00000000 154d0400  ....}..%.....M..
 12e0 00048201 0b260700 00041564 04000004  .....&.....d....
 12f0 82011426 07000008 15bb0700 00048201  ...&............
 1300 1e260700 000c1588 05000004 84010825  .&.............%
 1310 00000010 15650000 00048601 093a0600  .....e.......:..
 1320 00141598 04000004 88010725 00000018  ...........%....
 1330 15a30500 00048a01 07250000 001c1516  .........%......
 1340 00000004 8b011610 09000020 165f6d70  ........... ._mp
 1350 00048d01 12160900 00241599 05000004  .........$......
 1360 8f010a27 09000028 15ab0200 00049101  ...'...(........
 1370 07250000 002c1518 03000004 94010725  .%...,.........%
 1380 00000030 15220200 00049501 093a0600  ...0.".......:..
 1390 003415c3 07000004 9701132d 09000038  .4.........-...8
 13a0 159c0700 00049801 10330900 003c15bd  .........3...<..
 13b0 03000004 9901093a 06000040 15710700  .......:...@.q..
 13c0 00049c01 0c440900 00441589 01000004  .....D...D......
 13d0 a40110e7 06000048 156e0100 0004a501  .......H.n......
 13e0 0b260700 00541524 04000004 a6011750  .&...T.$.......P
 13f0 09000058 15b10300 0004a701 093a0600  ...X.........:..
 1400 005c000f 048b0300 0013ce04 00000d42  .\.............B
 1410 05000068 04ba081c 0600000e 5f700004  ...h........_p..
 1420 bb120d03 0000000e 5f720004 bc072500  ........_r....%.
 1430 0000040e 5f770004 bd072500 0000080b  ...._w....%.....
 1440 ae010000 04be0975 0000000c 0b470700  .......u.....G..
 1450 0004bf09 75000000 0e0e5f62 660004c0  ....u....._bf...
 1460 11e50200 00100bc6 00000004 c1072500  ..............%.
 1470 0000180b 83000000 04c412ce 0400001c  ................
 1480 0b810100 0004c80a 12010000 200bc002  ............ ...
 1490 000004ca 1d4c0600 00240b05 04000004  .....L...$......
 14a0 cc1d7606 0000280b ec050000 04cf0d9a  ..v...(.........
 14b0 0600002c 0bab0700 0004d009 b4060000  ...,............
 14c0 300e5f75 620004d3 11e50200 00340e5f  0._ub........4._
 14d0 75700004 d4120d03 00003c0e 5f757200  up........<._ur.
 14e0 04d50725 00000040 0b580100 0004d811  ...%...@.X......
 14f0 ba060000 440b8b07 000004d9 11ca0600  ....D...........
 1500 00470e5f 6c620004 dc11e502 0000480b  .G._lb........H.
 1510 f5010000 04df0725 00000050 0b2a0200  .......%...P.*..
 1520 0004e00a 98000000 540bf703 000004e7  ........T.......
 1530 0c2c0100 00580b55 05000004 e90e0601  .,...X.U........
 1540 00005c0b fd030000 04ea0925 00000064  ..\........%...d
 1550 00172500 00003a06 000018ce 04000018  ..%...:.........
 1560 12010000 183a0600 00182500 0000000f  .....:....%.....
 1570 04400600 00040108 0a050000 13400600  .@...........@..
 1580 000f041c 06000017 25000000 70060000  ........%...p...
 1590 18ce0400 00181201 00001870 06000018  ...........p....
 15a0 25000000 000f0447 0600000f 04520600  %......G.....R..
 15b0 0017a400 00009a06 000018ce 04000018  ................
 15c0 12010000 18a40000 00182500 0000000f  ..........%.....
 15d0 047c0600 00172500 0000b406 000018ce  .|....%.........
 15e0 04000018 12010000 000f04a0 06000008  ................
 15f0 6e000000 ca060000 09380000 00020008  n........8......
 1600 6e000000 da060000 09380000 00000005  n........8......
 1610 30050000 0424011a d9040000 145c0700  0....$.......\..
 1620 000c0428 01082007 00001563 05000004  ...(.. ....c....
 1630 2a011120 07000000 15890300 00042b01  *.. ..........+.
 1640 07250000 0004150f 05000004 2c010b26  .%..........,..&
 1650 07000008 000f04e7 0600000f 04da0600  ................
 1660 00145100 00001804 44010873 07000015  ..Q.....D..s....
 1670 d6050000 04450112 73070000 0015b806  .....E..s.......
 1680 00000446 01127307 00000615 f3060000  ...F..s.........
 1690 04470112 7c000000 0c155e05 0000044a  .G..|.....^....J
 16a0 01249100 00001000 087c0000 00830700  .$.......|......
 16b0 00093800 00000200 14a70100 0010045d  ..8............]
 16c0 0108ca07 000015ca 03000004 60011392  ............`...
 16d0 01000000 15c60200 00046101 07250000  ..........a..%..
 16e0 000415d6 07000004 62011392 01000008  ........b.......
 16f0 15c30400 00046301 14ca0700 000c000f  ......c.........
 1700 04920100 0014d406 00005004 67010879  ..........P.g..y
 1710 08000015 be060000 046a0109 3a060000  .........j..:...
 1720 00157b05 0000046b 010e0601 00000415  ..{....k........
 1730 1e010000 046c010e 06010000 0c15c807  .....l..........
 1740 0000046d 010e0601 00001415 67070000  ...m........g...
 1750 046e0108 79080000 1c150007 0000046f  .n..y..........o
 1760 01072500 00002415 43020000 0470010e  ..%...$.C....p..
 1770 06010000 2815f000 00000471 010e0601  ....(......q....
 1780 00003015 32020000 0472010e 06010000  ..0.2....r......
 1790 38158f00 00000473 010e0601 00004015  8......s......@.
 17a0 9e000000 0474010e 06010000 48000840  .....t......H..@
 17b0 06000089 08000009 38000000 070010d8  ........8.......
 17c0 0000006c 0106b208 10090000 0b0d0700  ...l............
 17d0 0006b40b e20d0000 000b9205 000006b5  ................
 17e0 0b1c0e00 00e00b5e 02000006 b70b4b0e  .......^......K.
 17f0 0000e40b cf000000 06b90a25 000000e8  ...........%....
 1800 0b2e0000 0006ba0b 3a060000 ec0b8900  ........:.......
 1810 000006bb 12bc0900 00f011d8 03000006  ................
 1820 bd0b510e 00002801 112a0400 0006be0b  ..Q...(..*......
 1830 610e0000 2a011112 02000006 bf0b610e  a...*.........a.
 1840 00004a01 000f0489 0800000f 04830700  ..J.............
 1850 00192709 000018ce 04000000 0f041c09  ..'.............
 1860 00000f04 2c070000 0f04a801 00001944  ....,..........D
 1870 09000018 25000000 000f044a 0900000f  ....%......J....
 1880 04390900 000f04d0 0700001a 44040000  .9..........D...
 1890 04cf0122 86030000 1a5b0400 0004d001  ...".....[......
 18a0 22860300 001ab207 000004d1 01228603  "............"..
 18b0 00001a2f 07000004 330317ce 0400001a  .../....3.......
 18c0 28070000 0434031d d4040000 1aa90600  (....4..........
 18d0 00044603 18c20200 001b7b04 00000767  ..F.......{....g
 18e0 0e3a0600 00033805 00000856 14060100  .:....8....V....
 18f0 000d8900 00003809 2a08020b 00000b04  ......8.*.......
 1900 03000009 2c093a06 0000000b c0050000  ....,.:.........
 1910 092d093a 06000004 0b910200 00092e09  .-.:............
 1920 3a060000 080b0e01 0000092f 093a0600  :........../.:..
 1930 000c0b1e 00000009 30093a06 0000100b  ........0.:.....
 1940 00030000 0931093a 06000014 0bbc0500  .....1.:........
 1950 00093209 3a060000 180b8d02 00000933  ..2.:..........3
 1960 093a0600 001c0b16 04000009 34093a06  .:..........4.:.
 1970 0000200b 90030000 0935093a 06000024  .. ......5.:...$
 1980 0b7b0700 00093608 40060000 280b7f07  .{....6.@...(...
 1990 00000937 08400600 00290beb 02000009  ...7.@...)......
 19a0 38084006 00002a0b 89040000 09390840  8.@...*......9.@
 19b0 0600002b 0bb50400 00093a08 40060000  ...+......:.@...
 19c0 2c0b7400 0000093b 08400600 002d0b81  ,.t....;.@...-..
 19d0 02000009 3c084006 00002e0b 1c070000  ....<.@.........
 19e0 093d0840 0600002f 0bb10400 00093e08  .=.@.../......>.
 19f0 40060000 300b7000 0000093f 08400600  @...0.p....?.@..
 1a00 00310b18 07000009 40084006 0000320b  .1......@.@...2.
 1a10 e7020000 09410840 06000033 0b850400  .....A.@...3....
 1a20 00094208 40060000 340b7d02 00000943  ..B.@...4.}....C
 1a30 08400600 0035000d 4a050000 08063908  .@...5..J.....9.
 1a40 2a0b0000 0b1a0200 00063b0f 70060000  *.........;.p...
 1a50 000bd803 0000063c 0f700600 00040013  .......<.p......
 1a60 020b0000 1b910100 00064220 2a0b0000  ..........B *...
 1a70 0d040200 003c0644 080c0c00 000b0e01  .....<.D........
 1a80 00000646 0f700600 00000b1e 00000006  ...F.p..........
 1a90 470f7006 0000040b 00030000 06480f70  G.p..........H.p
 1aa0 06000008 0bbc0500 0006490f 70060000  ..........I.p...
 1ab0 0c0b8d02 0000064a 0f700600 00100b16  .......J.p......
 1ac0 04000006 4b0f7006 0000140b 90030000  ....K.p.........
 1ad0 064c0f70 06000018 0b7b0700 00064d0f  .L.p.....{....M.
 1ae0 70060000 1c0b7f07 0000064e 0f700600  p..........N.p..
 1af0 00200beb 02000006 4f0f7006 0000240b  . ......O.p...$.
 1b00 89040000 06500f70 06000028 0bb50400  .....P.p...(....
 1b10 0006510f 70060000 2c0b7400 00000652  ..Q.p...,.t....R
 1b20 0f700600 00300b81 02000006 530f7006  .p...0......S.p.
 1b30 0000340b 1c070000 06540f70 06000038  ..4......T.p...8
 1b40 00133b0b 00001be0 06000006 65230c0c  ..;.........e#..
 1b50 00000de3 0000000c 06670852 0c00000b  .........g.R....
 1b60 04030000 06690f70 06000000 0bc00500  .....i.p........
 1b70 00066a0f 70060000 040b9102 0000066b  ..j.p..........k
 1b80 0f700600 00080013 1d0c0000 1b0c0000  .p..............
 1b90 00067222 520c0000 0d350100 00fc0674  ..r"R....5.....t
 1ba0 084e0d00 000e6d6f 6e000676 0f530d00  .N....mon..v.S..
 1bb0 00000bdf 07000006 770f530d 0000300b  ........w.S...0.
 1bc0 57070000 06780f63 0d000060 0b730500  W....x.c...`.s..
 1bd0 0006790f 630d0000 7c0bba02 0000067a  ..y.c...|......z
 1be0 0f700600 00980b75 04000006 7b0f7006  .p.....u....{.p.
 1bf0 00009c0b 12030000 067c0f70 060000a0  .........|.p....
 1c00 0ba10100 00067d0f 730d0000 a40b2d03  ......}.s.....-.
 1c10 0000067e 0f700600 00ac0bdb 07000006  ...~.p..........
 1c20 7f0f530d 0000b00b cd040000 06800f70  ..S............p
 1c30 060000e0 0bf20500 0006810f 70060000  ............p...
 1c40 e40e6572 61000682 0f700600 00e80bf7  ..era....p......
 1c50 04000006 830f7006 0000ec0b eb030000  ......p.........
 1c60 06840f70 060000f0 0b690500 0006850f  ...p.....i......
 1c70 70060000 f40b3f01 00000686 0f700600  p.....?......p..
 1c80 00f80013 630c0000 08700600 00630d00  ....c....p...c..
 1c90 00093800 00000b00 08700600 00730d00  ..8......p...s..
 1ca0 00093800 00000600 08700600 00830d00  ..8......p......
 1cb0 00093800 00000100 1bff0000 00069a1f  ..8.............
 1cc0 4e0d0000 0d130600 0010069c 08d10d00  N...............
 1cd0 000bef04 0000069e 0f700600 00000b54  .........p.....T
 1ce0 04000006 9f0f7006 0000040b e8040000  ......p.........
 1cf0 06a00f70 06000008 0bfe0100 0006a10f  ...p............
 1d00 70060000 0c00138f 0d00001b 6a020000  p...........j...
 1d10 06aa23d1 0d000008 40060000 f80d0000  ..#.....@.......
 1d20 09380000 00060938 0000001f 00172500  .8.....8......%.
 1d30 0000160e 000018ce 04000018 3a060000  ............:...
 1d40 183f0000 0018160e 0000000f 04b00900  .?..............
 1d50 000f04f8 0d000017 25000000 450e0000  ........%...E...
 1d60 18ce0400 0018450e 00001870 06000018  ......E....p....
 1d70 2c000000 18160e00 00000f04 3f000000  ,...........?...
 1d80 0f04220e 00000840 06000061 0e000009  .."....@...a....
 1d90 38000000 01000840 06000071 0e000009  8......@...q....
 1da0 38000000 1f001c2e 0800000a 21091201  8...........!...
 1db0 00004002 00081801 0000019c 1a0f0000  ..@.............
 1dc0 1d6d0001 260f1201 00000150 1e630001  .m..&......P.c..
 1dd0 27062500 0000f501 0000eb01 00001e6e  '.%............n
 1de0 00012809 2c000000 4a020000 3a020000  ..(.,...J...:...
 1df0 1f730001 2a093a06 0000ba02 0000b002  .s..*.:.........
 1e00 00001f69 00012d10 38000000 ff020000  ...i..-.8.......
 1e10 f9020000 20270800 00012e11 8a000000  .... '..........
 1e20 36030000 2e030000 201a0800 00012f12  6....... ...../.
 1e30 1a0f0000 a1030000 8b030000 1f640001  .............d..
 1e40 30103800 00003604 00002c04 0000000f  0.8...6...,.....
 1e50 048a0000 00002200 00000200 be030000  ......".........
 1e60 0401dc04 00005803 0008e805 00088308  ......X.........
 1e70 0000ab08 00000209 00000180 22000000  ............"...
 1e80 0200d203 00000401 ce050000 e8050008  ................
 1e90 840a0008 83080000 ab080000 02090000  ................
 1ea0 01802200 00000200 e6030000 04014307  .."...........C.
 1eb0 0000840a 0008e00a 00088308 0000ab08  ................
 1ec0 00000209 00000180                    ........        
Contents of section .debug_abbrev:
 0000 01110125 0e130b03 0e1b0e11 01120610  ...%............
 0010 17000002 24000b0b 3e0b0308 00000316  ....$...>.......
 0020 00030e3a 0b3b0b39 0b491300 00042400  ...:.;.9.I....$.
 0030 0b0b3e0b 030e0000 05160003 0e3a0b3b  ..>..........:.;
 0040 05390b49 13000006 26004913 00000717  .9.I....&.I.....
 0050 010b0b3a 0b3b0b39 0b011300 00080d00  ...:.;.9........
 0060 030e3a0b 3b0b390b 49130000 09010149  ..:.;.9.I......I
 0070 13011300 000a2100 49132f0b 00000b13  ......!.I./.....
 0080 010b0b3a 0b3b0b39 0b011300 000c0d00  ...:.;.9........
 0090 030e3a0b 3b0b390b 4913380b 00000d0f  ..:.;.9.I.8.....
 00a0 000b0b00 000e3700 49130000 0f130103  ......7.I.......
 00b0 0e0b0b3a 0b3b0b39 0b011300 00100d00  ...:.;.9........
 00c0 03083a0b 3b0b390b 4913380b 0000110f  ..:.;.9.I.8.....
 00d0 000b0b49 13000012 1301030e 0b053a0b  ...I..........:.
 00e0 3b0b390b 01130000 130d0003 0e3a0b3b  ;.9..........:.;
 00f0 0b390b49 13380500 00141500 27190000  .9.I.8......'...
 0100 15130103 0e0b0b3a 0b3b0539 0b011300  .......:.;.9....
 0110 00160d00 030e3a0b 3b05390b 4913380b  ......:.;.9.I.8.
 0120 0000170d 0003083a 0b3b0539 0b491338  .......:.;.9.I.8
 0130 0b000018 15012719 49130113 00001905  ......'.I.......
 0140 00491300 001a1501 27190113 00001b34  .I......'......4
 0150 00030e3a 0b3b0539 0b49133f 193c1900  ...:.;.9.I.?.<..
 0160 001c2600 00001d34 00030e3a 0b3b0b39  ..&....4...:.;.9
 0170 0b49133f 193c1900 001e2e01 3f19030e  .I.?.<......?...
 0180 3a0b3b0b 390b2719 49131101 12064018  :.;.9.'.I.....@.
 0190 97421901 1300001f 0500030e 3a0b3b0b  .B..........:.;.
 01a0 390b4913 02180000 20050003 0e3a0b3b  9.I..... ....:.;
 01b0 0b390b49 130217b7 42170000 21340003  .9.I....B...!4..
 01c0 083a0b3b 0b390b49 130217b7 42170000  .:.;.9.I....B...
 01d0 22340003 0e3a0b3b 0b390b49 130217b7  "4...:.;.9.I....
 01e0 42170000 00011101 250e130b 030e1b0e  B.......%.......
 01f0 11011206 10170000 0224000b 0b3e0b03  .........$...>..
 0200 08000003 1600030e 3a0b3b0b 390b4913  ........:.;.9.I.
 0210 00000424 000b0b3e 0b030e00 00051600  ...$...>........
 0220 030e3a0b 3b05390b 49130000 0617010b  ..:.;.9.I.......
 0230 0b3a0b3b 0b390b01 13000007 0d00030e  .:.;.9..........
 0240 3a0b3b0b 390b4913 00000801 01491301  :.;.9.I......I..
 0250 13000009 21004913 2f0b0000 0a13010b  ....!.I./.......
 0260 0b3a0b3b 0b390b01 1300000b 0d00030e  .:.;.9..........
 0270 3a0b3b0b 390b4913 380b0000 0c0f000b  :.;.9.I.8.......
 0280 0b00000d 1301030e 0b0b3a0b 3b0b390b  ..........:.;.9.
 0290 01130000 0e0d0003 083a0b3b 0b390b49  .........:.;.9.I
 02a0 13380b00 000f0f00 0b0b4913 00001013  .8........I.....
 02b0 01030e0b 053a0b3b 0b390b01 13000011  .....:.;.9......
 02c0 0d00030e 3a0b3b0b 390b4913 38050000  ....:.;.9.I.8...
 02d0 12150027 19000013 26004913 00001413  ...'....&.I.....
 02e0 01030e0b 0b3a0b3b 05390b01 13000015  .....:.;.9......
 02f0 0d00030e 3a0b3b05 390b4913 380b0000  ....:.;.9.I.8...
 0300 160d0003 083a0b3b 05390b49 13380b00  .....:.;.9.I.8..
 0310 00171501 27194913 01130000 18050049  ....'.I........I
 0320 13000019 15012719 01130000 1a340003  ......'......4..
 0330 0e3a0b3b 05390b49 133f193c 1900001b  .:.;.9.I.?.<....
 0340 3400030e 3a0b3b0b 390b4913 3f193c19  4...:.;.9.I.?.<.
 0350 00001c2e 013f1903 0e3a0b3b 0b390b27  .....?...:.;.9.'
 0360 19491311 01120640 18974219 01130000  .I.....@..B.....
 0370 1d050003 083a0b3b 0b390b49 13021800  .....:.;.9.I....
 0380 001e0500 03083a0b 3b0b390b 49130217  ......:.;.9.I...
 0390 b7421700 001f3400 03083a0b 3b0b390b  .B....4...:.;.9.
 03a0 49130217 b7421700 00203400 030e3a0b  I....B... 4...:.
 03b0 3b0b390b 49130217 b7421700 00000111  ;.9.I....B......
 03c0 00100611 01120103 0e1b0e25 0e130500  ...........%....
 03d0 00000111 00100611 01120103 0e1b0e25  ...............%
 03e0 0e130500 00000111 00100611 01120103  ................
 03f0 0e1b0e25 0e130500 0000               ...%......      
Contents of section .debug_loc:
 0000 00000000 00000000 00000000 00006c00  ..............l.
 0010 00000100 516c0000 00e00000 000400f3  ....Ql..........
 0020 01519fe0 000000fc 00000001 0051fc00  .Q...........Q..
 0030 00001001 00000400 f301519f 10010000  ..........Q.....
 0040 1c010000 01005100 00000000 00000000  ......Q.........
 0050 00000000 00000000 00000000 00300000  .............0..
 0060 00010052 b0000000 bc000000 010052e0  ...R..........R.
 0070 000000f4 00000001 0052f400 0000fc00  .........R......
 0080 00000300 727f9f10 0100001c 01000001  ....r...........
 0090 00520000 00000000 00000000 00000000  .R..............
 00a0 00000000 04000000 b0000000 010050b0  ..............P.
 00b0 000000c8 00000001 005ce000 0000e800  .........\......
 00c0 00000100 50e80000 00f00000 0001005c  ....P..........\
 00d0 fc000000 1c010000 01005000 00000000  ..........P.....
 00e0 00000001 00000000 00000000 00000000  ................
 00f0 00040000 006c0000 00010051 6c000000  .....l.....Ql...
 0100 b0000000 0400f301 519fb000 0000cc00  ........Q.......
 0110 00000100 51cc0000 00d40000 00030071  ....Q..........q
 0120 7f9fd400 00000001 00000100 51000100  ............Q...
 0130 00080100 00030071 7f9f0801 00001c01  .......q........
 0140 00000100 51000000 00000000 00000074  ....Q..........t
 0150 0000008c 00000001 005c0000 00000000  .........\......
 0160 00000001 01000001 01010101 00000000  ................
 0170 00010100 30000000 30000000 03007370  ....0...0.....sp
 0180 9f300000 00400000 00030073 749f4000  .0...@.....st.@.
 0190 00004800 00000300 73649f48 0000004c  ..H.....sd.H...L
 01a0 00000003 0073689f 4c000000 50000000  .....sh.L...P...
 01b0 0300736c 9f740000 008c0000 00010051  ..sl.t.........Q
 01c0 8c000000 90000000 01005490 00000094  ..........T.....
 01d0 00000003 00747c9f 94000000 b0000000  .....t|.........
 01e0 01005400 00000000 00000000 00000000  ..T.............
 01f0 00000000 00000000 00c80000 00010051  ...............Q
 0200 c8000000 e0000000 0400f301 519fe000  ............Q...
 0210 0000ec00 00000100 51ec0000 00000100  ........Q.......
 0220 000400f3 01519f00 01000018 01000001  .....Q..........
 0230 00510000 00000000 00000000 00000000  .Q..............
 0240 00000100 00000000 00000000 00001000  ................
 0250 00000100 52100000 00200000 00010052  ....R.... .....R
 0260 20000000 24000000 0300727f 9f240000   ...$.....r..$..
 0270 002c0000 00010052 2c000000 38000000  .,.....R,...8...
 0280 0300727f 9f980000 009c0000 00010052  ..r............R
 0290 bc000000 cc000000 0300727f 9f000100  ..........r.....
 02a0 00100100 00010052 00000000 00000000  .......R........
 02b0 02000000 00000000 00000000 00002000  .............. .
 02c0 00000100 50200000 00a00000 00010053  ....P .........S
 02d0 bc000000 04010000 01005308 01000010  ..........S.....
 02e0 01000001 00501001 00001801 00000100  .....P..........
 02f0 53000000 00000000 00010000 00000054  S..............T
 0300 000000e0 00000003 0008209f 00010000  .......... .....
 0310 08010000 03000820 9f100100 00180100  ....... ........
 0320 00030008 209f0000 00000000 00000000  .... ...........
 0330 00000000 00004c00 0000dc00 00000100  ......L.........
 0340 5edc0000 00e00000 002200f3 015108ff  ^........"...Q..
 0350 1af30151 08ff1a38 2421f301 5108ff1a  ...Q...8$!..Q...
 0360 f3015108 ff1a3824 21402421 9f000100  ..Q...8$!@$!....
 0370 00080100 0001005e 10010000 18010000  .......^........
 0380 01005e00 00000000 00000001 00010101  ..^.............
 0390 01010101 00000000 00000101 00000000  ................
 03a0 00480000 006c0000 00010053 6c000000  .H...l.....Sl...
 03b0 70000000 03007c74 9f700000 00740000  p.....|t.p...t..
 03c0 0003007c 789f7400 00007800 00000300  ...|x.t...x.....
 03d0 7c7c9f78 00000080 00000001 005c8000  ||.x.........\..
 03e0 00008c00 00000300 7c709f98 000000b0  ........|p......
 03f0 00000001 005cb000 0000b000 00000300  .....\..........
 0400 7c7c9fb0 000000e0 00000001 005c0001  ||...........\..
 0410 00000801 00000100 5c100100 00180100  ........\.......
 0420 00010053 00000000 00000000 00000000  ...S............
 0430 00000000 00000400 0000c800 00000600  ................
 0440 710008ff 1a9fc800 0000e000 00000700  q...............
 0450 f3015108 ff1a9fe0 000000ec 00000006  ..Q.............
 0460 00710008 ff1a9fec 00000000 01000007  .q..............
 0470 00f30151 08ff1a9f 00010000 18010000  ...Q............
 0480 06007100 08ff1a9f 00000000 00000000  ..q.............
Contents of section .debug_aranges:
 0000 1c000000 02000000 00000400 00000000  ................
 0010 24010008 1c010000 00000000 00000000  $...............
 0020 1c000000 0200350f 00000400 00000000  ......5.........
 0030 40020008 18010000 00000000 00000000  @...............
 0040 1c000000 0200561e 00000400 00000000  ......V.........
 0050 58030008 90020000 00000000 00000000  X...............
 0060 1c000000 02007c1e 00000400 00000000  ......|.........
 0070 e8050008 9c040000 00000000 00000000  ................
 0080 1c000000 0200a21e 00000400 00000000  ................
 0090 840a0008 5c000000 00000000 00000000  ....\...........
Contents of section .debug_line:
 0000 5f020000 03008f01 00000201 fb0e0d00  _...............
 0010 01010101 00000001 0000012e 2e2f2e2e  ............./..
 0020 2f2e2e2f 2e2e2f2e 2e2f2e2e 2f6e6577  /../../../../new
 0030 6c69622f 6c696263 2f6d6163 68696e65  lib/libc/machine
 0040 2f61726d 2f2e2e2f 2e2e2f73 7472696e  /arm/../../strin
 0050 67002f75 73722f6c 69622f67 63632f61  g./usr/lib/gcc/a
 0060 726d2d6e 6f6e652d 65616269 2f382e33  rm-none-eabi/8.3
 0070 2e312f69 6e636c75 6465002f 6275696c  .1/include./buil
 0080 642f6e65 776c6962 2d435656 4579782f  d/newlib-CVVEyx/
 0090 6e65776c 69622d33 2e332e30 2f6e6577  newlib-3.3.0/new
 00a0 6c69622f 6c696263 2f696e63 6c756465  lib/libc/include
 00b0 2f737973 002f6275 696c642f 6e65776c  /sys./build/newl
 00c0 69622d43 56564579 782f6e65 776c6962  ib-CVVEyx/newlib
 00d0 2d332e33 2e302f6e 65776c69 622f6c69  -3.3.0/newlib/li
 00e0 62632f6c 6f63616c 65002f62 75696c64  bc/locale./build
 00f0 2f6e6577 6c69622d 43565645 79782f6e  /newlib-CVVEyx/n
 0100 65776c69 622d332e 332e302f 6e65776c  ewlib-3.3.0/newl
 0110 69622f6c 6962632f 696e636c 75646500  ib/libc/include.
 0120 006d656d 6370792e 63000100 00737464  .memcpy.c....std
 0130 6465662e 68000200 005f7479 7065732e  def.h...._types.
 0140 68000300 00726565 6e742e68 00030000  h....reent.h....
 0150 6c6f636b 2e680003 00007365 746c6f63  lock.h....setloc
 0160 616c652e 68000400 00737464 6c69622e  ale.h....stdlib.
 0170 68000500 00776368 61722e68 00050000  h....wchar.h....
 0180 6c6f6361 6c652e68 00050000 73747269  locale.h....stri
 0190 6e672e68 00050000 00050100 05022401  ng.h..........$.
 01a0 00080333 01050303 0e010506 06190503  ...3............
 01b0 06037a2e 13131605 06060105 1c000204  ..z.............
 01c0 012e0518 00020401 2e050103 6b4a050b  ............kJ..
 01d0 06031dd6 051a0601 2f30050d 45051a30  ......../0..E..0
 01e0 050b062f 051a0601 050b062f 051a0613  .../......./....
 01f0 050b062f 0601050d 037a2e03 0a66664a  .../.....z...ffJ
 0200 05282905 0b06a505 1a06012e 050b062f  .()............/
 0210 050d060f 0509030b d6050e2e 2e2e0509  ................
 0220 4a050506 2f050c06 0105092d 050c2f05  J.../......-../.
 0230 092d0501 33050945 035e2e05 0e03222e  .-..3..E.^....".
 0240 05092e2e 2e050506 4b050c06 0105092d  ........K......-
 0250 050c2f05 092d050e 4a050903 5e2e0204  ../..-..J...^...
 0260 00010175 02000003 007a0100 000201fb  ...u.....z......
 0270 0e0d0001 01010100 00000100 00012e2e  ................
 0280 2f2e2e2f 2e2e2f2e 2e2f2e2e 2f6e6577  /../../../../new
 0290 6c69622f 6c696263 2f737472 696e6700  lib/libc/string.
 02a0 2f757372 2f6c6962 2f676363 2f61726d  /usr/lib/gcc/arm
 02b0 2d6e6f6e 652d6561 62692f38 2e332e31  -none-eabi/8.3.1
 02c0 2f696e63 6c756465 002f6275 696c642f  /include./build/
 02d0 6e65776c 69622d43 56564579 782f6e65  newlib-CVVEyx/ne
 02e0 776c6962 2d332e33 2e302f6e 65776c69  wlib-3.3.0/newli
 02f0 622f6c69 62632f69 6e636c75 64652f73  b/libc/include/s
 0300 7973002e 2e2f2e2e 2f2e2e2f 2e2e2f2e  ys.../../../../.
 0310 2e2f6e65 776c6962 2f6c6962 632f7374  ./newlib/libc/st
 0320 72696e67 2f2e2e2f 63747970 652f2e2e  ring/../ctype/..
 0330 2f6c6f63 616c6500 2f627569 6c642f6e  /locale./build/n
 0340 65776c69 622d4356 56457978 2f6e6577  ewlib-CVVEyx/new
 0350 6c69622d 332e332e 302f6e65 776c6962  lib-3.3.0/newlib
 0360 2f6c6962 632f696e 636c7564 6500006d  /libc/include..m
 0370 656d7365 742e6300 01000073 74646465  emset.c....stdde
 0380 662e6800 0200005f 74797065 732e6800  f.h...._types.h.
 0390 03000072 65656e74 2e680003 00006c6f  ...reent.h....lo
 03a0 636b2e68 00030000 7365746c 6f63616c  ck.h....setlocal
 03b0 652e6800 04000073 74646c69 622e6800  e.h....stdlib.h.
 03c0 05000077 63686172 2e680005 00006c6f  ...wchar.h....lo
 03d0 63616c65 2e680005 00007374 72696e67  cale.h....string
 03e0 2e680005 00000005 01000502 40020008  .h..........@...
 03f0 03280105 03131513 13130509 06150503  .(..............
 0400 062e0509 06010507 0630050a 0601050c  .........0......
 0410 2e050a2e 05090375 4a050c03 0b4a050a  .......uJ....J..
 0420 2e050706 4a050913 050e0601 05092b05  ....J.........+.
 0430 03065205 06060105 01036e4a 05103505  ..R.......nJ..5.
 0440 0706030e 2e16050e 06010507 062f050d  ............./..
 0450 0617050e 29050706 2f050d06 162e050b  ....).../.......
 0460 06a0051b 0601050b 062f051b 0601050b  ........./......
 0470 062f051b 0601050b 062f051b 0601050b  ./......./......
 0480 062f0601 050d037a 2e4a0309 2e662e2e  ./.....z.J...f..
 0490 050b0668 051b0601 050b062f 050d060f  ...h......./....
 04a0 4a050903 0b2e4a2e 0505062f 050a0601  J.....J..../....
 04b0 05092d05 014e2e05 092a4a2e 0505062f  ..-..N...*J..../
 04c0 050a0601 05092d05 18037166 2e050903  ......-...qf....
 04d0 5d2e050d 031e4a02 04000101 ee000000  ].....J.........
 04e0 03003e00 00000201 fb0e0d00 01010101  ..>.............
 04f0 00000001 0000012e 2e2f2e2e 2f2e2e2f  ........./../../
 0500 6c696267 63632f63 6f6e6669 672f6172  libgcc/config/ar
 0510 6d000069 65656537 35342d64 662e5300  m..ieee754-df.S.
 0520 01000000 00050258 03000803 fc040136  .......X.......6
 0530 2f2f302f 2f2f3131 322f2f30 2f2f2f32  //0///112//0///2
 0540 2f2f2f2f 2f2f3230 312f2f2f 2f2f2f31  //////201//////1
 0550 2f2f2f2f 31302f31 302f2f2f 4e2f2f2f  ////10/10///N///
 0560 2f302f2f 4d2f2f31 31302f2f 4d2f2f2f  /0//M//110//M///
 0570 2f312f2f 2f2f2f2f 2f2f2f30 2f4e2f2f  /1/////////0/N//
 0580 2f2f2f2f 2f2f302f 4e2f2f2f 2f2f2f2f  //////0/N///////
 0590 2f302f4f 2f2f2f2f 2f302f2f 2f302f2f  /0/O/////0///0//
 05a0 2f2f302f 2f2f322f 302f3130 2f322f2f  //0///2/0/10/2//
 05b0 2f4d302f 2f2f2f2f 2f2f2f2f 2f302f2f  /M0//////////0//
 05c0 32322f2f 2f2f4e2f 2f020400 01017101  22////N//.....q.
 05d0 00000300 3e000000 0201fb0e 0d000101  ....>...........
 05e0 01010000 00010000 012e2e2f 2e2e2f2e  .........../../.
 05f0 2e2f6c69 62676363 2f636f6e 6669672f  ./libgcc/config/
 0600 61726d00 00696565 65373534 2d64662e  arm..ieee754-df.
 0610 53000100 00000005 02e80500 0803fc04  S...............
 0620 01362f2f 302f2f2f 3131322f 2f302f2f  .6//0///112//0//
 0630 2f322f2f 2f2f2f2f 3230312f 2f2f2f2f  /2//////201/////
 0640 2f312f2f 2f2f3130 2f31302f 2f2f4e2f  /1////10/10///N/
 0650 2f2f2f30 2f2f4d2f 2f313130 2f2f4d2f  ///0//M//110//M/
 0660 2f2f2f31 2f2f2f2f 2f2f2f2f 2f302f4e  ///1/////////0/N
 0670 2f2f2f2f 2f2f2f2f 302f4e2f 2f2f2f2f  ////////0/N/////
 0680 2f2f2f30 2f4f2f2f 2f2f2f30 2f2f2f30  ///0/O/////0///0
 0690 2f2f2f2f 302f2f2f 322f302f 31302f32  ////0///2/0/10/2
 06a0 2f2f2f4d 302f2f2f 2f2f2f2f 2f2f2f30  ///M0//////////0
 06b0 2f2f3232 2f2f2f2f 4e2f2f03 0c4a362f  //22////N//..J6/
 06c0 2f302f2f 2f313132 2f2f2f2f 2f2f2f2f  /0///112////////
 06d0 2f2f3132 302f2f2f 2f2f312f 2f2f2f2f  //120/////1/////
 06e0 312f302f 2f2f2f2f 2f302f2f 2f2f2f2f  1/0//////0//////
 06f0 302f2f2f 2f2f2f30 2f2f302f 2f2f2f2f  0//////0//0/////
 0700 2f2f2f2f 322f2f2f 2f2f3130 2f31302f  ////2/////10/10/
 0710 31302f2f 2f2f4e2f 2f302f2f 4c2f2f2f  10////N//0//L///
 0720 332f322f 302f2f2f 2f2f2f2f 2f2f2f2f  3/2/0///////////
 0730 2f2f2f2f 2f2f3030 2f302f2f 2f2f0202  //////00/0////..
 0740 0001016a 00000003 003e0000 000201fb  ...j.....>......
 0750 0e0d0001 01010100 00000100 00012e2e  ................
 0760 2f2e2e2f 2e2e2f6c 69626763 632f636f  /../../libgcc/co
 0770 6e666967 2f61726d 00006965 65653735  nfig/arm..ieee75
 0780 342d6466 2e530001 00000000 0502840a  4-df.S..........
 0790 000803bf 0a012f2f 2f2f2f2f 312f2f2f  ......//////1///
 07a0 2f302f30 2f302f2f 302f302f 02020001  /0/0/0//0/0/....
 07b0 01                                   .               
Contents of section .debug_str:
 0000 5f64736f 5f68616e 646c6500 5f435f6e  _dso_handle._C_n
 0010 756d6572 69635f6c 6f63616c 65006375  umeric_locale.cu
 0020 7272656e 63795f73 796d626f 6c006374  rrency_symbol.ct
 0030 7970655f 70747200 5f73697a 65006d65  ype_ptr._size.me
 0040 6d637079 00647374 30007369 7a655f74  mcpy.dst0.size_t
 0050 005f7261 6e643438 00616c69 676e6564  ._rand48.aligned
 0060 5f647374 005f656d 65726765 6e637900  _dst._emergency.
 0070 696e745f 6e5f7365 705f6279 5f737061  int_n_sep_by_spa
 0080 6365005f 64617461 006c636f 6e76005f  ce._data.lconv._
 0090 77637274 6f6d625f 73746174 65005f77  wcrtomb_state._w
 00a0 63737274 6f6d6273 5f737461 7465006c  csrtombs_state.l
 00b0 6f6e6720 6c6f6e67 20756e73 69676e65  ong long unsigne
 00c0 6420696e 74005f6c 62667369 7a650063  d int._lbfsize.c
 00d0 6a6b5f6c 616e6700 5f5f6c6f 63616c65  jk_lang.__locale
 00e0 5f74006c 635f6e75 6d657269 635f5400  _t.lc_numeric_T.
 00f0 5f6d6272 746f7763 5f737461 7465005f  _mbrtowc_state._
 0100 435f7469 6d655f6c 6f63616c 6500696e  C_time_locale.in
 0110 745f6375 72725f73 796d626f 6c005f77  t_curr_symbol._w
 0120 63746f6d 625f7374 61746500 5f5f746d  ctomb_state.__tm
 0130 5f736563 006c635f 74696d65 5f540061  _sec.lc_time_T.a
 0140 6c745f64 69676974 73006c6f 6e67206c  lt_digits.long l
 0150 6f6e6720 696e7400 5f756275 66005f62  ong int._ubuf._b
 0160 61736500 5f5f746d 5f686f75 72005f5f  ase.__tm_hour.__
 0170 7366005f 6f6e5f65 7869745f 61726773  sf._on_exit_args
 0180 005f636f 6f6b6965 005f5f73 676c7565  ._cookie.__sglue
 0190 005f435f 63747970 655f6c6f 63616c65  ._C_ctype_locale
 01a0 00616d5f 706d005f 6d707265 63005f66  .am_pm._mprec._f
 01b0 6c616773 005f6973 5f637861 002e2e2f  lags._is_cxa.../
 01c0 2e2e2f2e 2e2f2e2e 2f2e2e2f 2e2e2f6e  ../../../../../n
 01d0 65776c69 622f6c69 62632f6d 61636869  ewlib/libc/machi
 01e0 6e652f61 726d2f6d 656d6370 792d7374  ne/arm/memcpy-st
 01f0 75622e63 005f626c 6b73697a 65006e6f  ub.c._blksize.no
 0200 73747200 6c635f6d 6f6e6574 6172795f  str.lc_monetary_
 0210 54006d65 73736167 655f636f 64657365  T.message_codese
 0220 74005f63 76746275 66005f6f 66667365  t._cvtbuf._offse
 0230 74005f6d 62737274 6f776373 5f737461  t._mbsrtowcs_sta
 0240 7465005f 6d62726c 656e5f73 74617465  te._mbrlen_state
 0250 005f666e 61726773 00737263 30006d62  ._fnargs.src0.mb
 0260 746f7763 005f666e 73005f43 5f6d6573  towc._fns._C_mes
 0270 73616765 735f6c6f 63616c65 00696e74  sages_locale.int
 0280 5f705f73 69676e5f 706f736e 006d6f6e  _p_sign_posn.mon
 0290 5f67726f 7570696e 67005f66 6c6f636b  _grouping._flock
 02a0 5f74005f 42696769 6e74005f 67616d6d  _t._Bigint._gamm
 02b0 615f7369 676e6761 6d00585f 666d7400  a_signgam.X_fmt.
 02c0 5f726561 64005f72 6573756c 745f6b00  _read._result_k.
 02d0 5f5f746d 005f6f6e 5f657869 745f6172  __tm._on_exit_ar
 02e0 67735f70 74720069 6e745f70 5f63735f  gs_ptr.int_p_cs_
 02f0 70726563 65646573 005f5f77 63686200  precedes.__wchb.
 0300 6d6f6e5f 64656369 6d616c5f 706f696e  mon_decimal_poin
 0310 7400635f 666d7400 5f637674 6c656e00  t.c_fmt._cvtlen.
 0320 5f5f7346 494c455f 66616b65 00646174  __sFILE_fake.dat
 0330 655f666d 74002f62 75696c64 2f6e6577  e_fmt./build/new
 0340 6c69622d 43565645 79782f6e 65776c69  lib-CVVEyx/newli
 0350 622d332e 332e302f 6275696c 645f6e61  b-3.3.0/build_na
 0360 6e6f2f61 726d2d6e 6f6e652d 65616269  no/arm-none-eabi
 0370 2f6e6577 6c69622f 6c696263 2f6d6163  /newlib/libc/mac
 0380 68696e65 2f61726d 005f6e69 6f627300  hine/arm._niobs.
 0390 6e656761 74697665 5f736967 6e007368  negative_sign.sh
 03a0 6f727420 756e7369 676e6564 20696e74  ort unsigned int
 03b0 005f7369 676e616c 5f627566 005f6173  ._signal_buf._as
 03c0 6374696d 655f6275 66005f72 6573756c  ctime_buf._resul
 03d0 74005f5f 77636800 6d625f63 75725f6d  t.__wch.mb_cur_m
 03e0 61780077 63686172 5f740065 72615f64  ax.wchar_t.era_d
 03f0 5f745f66 6d74005f 6c6f636b 005f666c  _t_fmt._lock._fl
 0400 61677332 005f7772 69746500 5f5f746d  ags2._write.__tm
 0410 5f796561 7200706f 73697469 76655f73  _year.positive_s
 0420 69676e00 5f6d6973 63006374 7970655f  ign._misc.ctype_
 0430 636f6465 73657400 6c6f6e67 20646f75  codeset.long dou
 0440 626c6500 5f5f7366 5f66616b 655f7374  ble.__sf_fake_st
 0450 64696e00 6e6f6578 7072005f 5f73665f  din.noexpr.__sf_
 0460 66616b65 5f737464 6f757400 5f5f746d  fake_stdout.__tm
 0470 5f6d6f6e 00785f66 6d740073 75626f70  _mon.x_fmt.subop
 0480 74617267 00696e74 5f705f73 65705f62  targ.int_p_sep_b
 0490 795f7370 61636500 5f5f7364 6964696e  y_space.__sdidin
 04a0 6974005f 6f66665f 74007769 6e745f74  it._off_t.wint_t
 04b0 00696e74 5f6e5f63 735f7072 65636564  .int_n_cs_preced
 04c0 6573005f 66726565 6c697374 006d645f  es._freelist.md_
 04d0 6f726465 72005f4c 4f434b5f 52454355  order._LOCK_RECU
 04e0 52534956 455f5400 79657373 74720079  RSIVE_T.yesstr.y
 04f0 65736578 70720065 72615f64 5f666d74  esexpr.era_d_fmt
 0500 00756e73 69676e65 64206368 6172005f  .unsigned char._
 0510 696f6273 0073686f 72742069 6e74005f  iobs.short int._
 0520 5f746d5f 79646179 005f5f73 62756600  _tm_yday.__sbuf.
 0530 5f5f4649 4c45005f 6d627374 6174655f  __FILE._mbstate_
 0540 74005f5f 7346494c 45006c63 5f637479  t.__sFILE.lc_cty
 0550 70655f54 005f6d62 73746174 65005f72  pe_T._mbstate._r
 0560 616e645f 6e657874 00657261 5f745f66  and_next.era_t_f
 0570 6d740077 65656b64 6179005f 6d626c65  mt.weekday._mble
 0580 6e5f7374 61746500 5f696e63 005f696e  n_state._inc._in
 0590 64007763 746f6d62 005f5f63 6c65616e  d.wctomb.__clean
 05a0 7570005f 756e7370 65636966 6965645f  up._unspecified_
 05b0 6c6f6361 6c655f69 6e666f00 6d6f6e5f  locale_info.mon_
 05c0 74686f75 73616e64 735f7365 70005f6d  thousands_sep._m
 05d0 61787764 73005f73 65656400 5f5f636f  axwds._seed.__co
 05e0 756e7400 5f5f7661 6c756500 5f736565  unt.__value._see
 05f0 6b00616d 706d5f66 6d74005f 66706f73  k.ampm_fmt._fpos
 0600 5f74005f 6572726e 6f005f5f 746d5f6d  _t._errno.__tm_m
 0610 696e006c 635f6d65 73736167 65735f54  in.lc_messages_T
 0620 00474e55 20433137 20382e33 2e312032  .GNU C17 8.3.1 2
 0630 30313930 37303320 2872656c 65617365  0190703 (release
 0640 29205b67 63632d38 2d627261 6e636820  ) [gcc-8-branch 
 0650 72657669 73696f6e 20323733 3032375d  revision 273027]
 0660 202d6d63 70753d61 726d3774 646d6920   -mcpu=arm7tdmi 
 0670 2d6d666c 6f61742d 6162693d 736f6674  -mfloat-abi=soft
 0680 202d6d61 726d202d 6d617263 683d6172   -marm -march=ar
 0690 6d763474 202d6720 2d4f3220 2d666e6f  mv4t -g -O2 -fno
 06a0 2d627569 6c74696e 005f676c 6f62616c  -builtin._global
 06b0 5f617465 78697400 5f6d756c 74005f73  _atexit._mult._s
 06c0 7472746f 6b5f6c61 7374005f 666e7479  trtok_last._fnty
 06d0 70657300 5f6d6973 635f7265 656e7400  pes._misc_reent.
 06e0 5f435f6d 6f6e6574 6172795f 6c6f6361  _C_monetary_loca
 06f0 6c65005f 61646400 5f5f554c 6f6e6700  le._add.__ULong.
 0700 5f676574 64617465 5f657272 00636174  _getdate_err.cat
 0710 65676f72 69657300 696e745f 6e5f7369  egories.int_n_si
 0720 676e5f70 6f736e00 5f676c6f 62616c5f  gn_posn._global_
 0730 696d7075 72655f70 74720061 6c69676e  impure_ptr.align
 0740 65645f73 7263005f 66696c65 005f7764  ed_src._file._wd
 0750 73005f5f 746d5f77 64617900 5f676c75  s.__tm_wday._glu
 0760 65006c65 6e30005f 6c363461 5f627566  e.len0._l64a_buf
 0770 005f7369 675f6675 6e630069 6e745f66  ._sig_func.int_f
 0780 7261635f 64696769 7473005f 6e627566  rac_digits._nbuf
 0790 005f5f74 6d5f6973 64737400 5f6c6f63  .__tm_isdst._loc
 07a0 616c7469 6d655f62 7566005f 636c6f73  altime_buf._clos
 07b0 65005f5f 73665f66 616b655f 73746465  e.__sf_fake_stde
 07c0 7272005f 72343800 5f6d6274 6f77635f  rr._r48._mbtowc_
 07d0 73746174 65005f70 35730061 6c745f6d  state._p5s.alt_m
 07e0 6f6e7468 005f5f74 6d5f6d64 6179002e  onth.__tm_mday..
 07f0 2e2f2e2e 2f2e2e2f 2e2e2f2e 2e2f6e65  ./../../../../ne
 0800 776c6962 2f6c6962 632f7374 72696e67  wlib/libc/string
 0810 2f6d656d 7365742e 6300616c 69676e65  /memset.c.aligne
 0820 645f6164 64720062 75666665 72006d65  d_addr.buffer.me
 0830 6d736574 002f6275 696c642f 6e65776c  mset./build/newl
 0840 69622d43 56564579 782f6e65 776c6962  ib-CVVEyx/newlib
 0850 2d332e33 2e302f62 75696c64 5f6e616e  -3.3.0/build_nan
 0860 6f2f6172 6d2d6e6f 6e652d65 6162692f  o/arm-none-eabi/
 0870 6e65776c 69622f6c 6962632f 73747269  newlib/libc/stri
 0880 6e67002e 2e2f2e2e 2f2e2e2f 6c696267  ng.../../../libg
 0890 63632f63 6f6e6669 672f6172 6d2f6965  cc/config/arm/ie
 08a0 65653735 342d6466 2e53002f 6275696c  ee754-df.S./buil
 08b0 642f6763 632d6172 6d2d6e6f 6e652d65  d/gcc-arm-none-e
 08c0 6162692d 476c396b 54392f67 63632d61  abi-Gl9kT9/gcc-a
 08d0 726d2d6e 6f6e652d 65616269 2d392d32  rm-none-eabi-9-2
 08e0 3031392d 71342f62 75696c64 2f61726d  019-q4/build/arm
 08f0 2d6e6f6e 652d6561 62692f6c 69626763  -none-eabi/libgc
 0900 6300474e 55204153 20322e33 3400      c.GNU AS 2.34.  
Contents of section .debug_frame:
 0000 0c000000 ffffffff 0100027c 0e0c0d00  ...........|....
 0010 28000000 00000000 24010008 1c010000  (.......$.......
 0020 4c0e1884 06850586 04870388 028e0102  L...............
 0030 62cec8c7 c6c5c40e 00000000 0c000000  b...............
 0040 ffffffff 0100027c 0e0c0d00 34000000  .......|....4...
 0050 3c000000 40020008 18010000 620e0c84  <...@.......b...
 0060 0385028e 01024cce c5c40e00 520e0c84  ......L.....R...
 0070 0385028e 01440e00 c4c5ce44 0e0c8403  .....D.....D....
 0080 85028e01 0c000000 ffffffff 0100027c  ...............|
 0090 0e0c0d00 1c000000 84000000 58030008  ............X...
 00a0 90020000 0a420e10 84048503 86028e01  .....B..........
 00b0 0346010b 0c000000 ffffffff 0100027c  .F.............|
 00c0 0e0c0d00 1c000000 b4000000 e8050008  ................
 00d0 90020000 0a420e10 84048503 86028e01  .....B..........
 00e0 0346010b 1c000000 b4000000 78080008  .F..........x...
 00f0 0c020000 0a420e10 84048503 86028e01  .....B..........
 0100 0304010b 0c000000 ffffffff 0100027c  ...............|
 0110 0e0c0d00 10000000 04010000 840a0008  ................
 0120 5c000000 0a6e0b00                    \....n..        

Disassembly of section .text:

08000000 <_VECTOR>:
 8000000:	00 40 00 20 19 00 00 08 11 00 00 08 15 00 00 08     .@. ............

08000010 <_nmi_handler>:
 8000010:	e7fe      	b.n	8000010 <_nmi_handler>
 8000012:	46c0      	nop			; (mov r8, r8)

08000014 <_hardfault_handler>:
 8000014:	e7fe      	b.n	8000014 <_hardfault_handler>
 8000016:	46c0      	nop			; (mov r8, r8)

08000018 <_startup>:
 8000018:	4809      	ldr	r0, [pc, #36]	; (8000040 <_startup+0x28>)
 800001a:	4a0a      	ldr	r2, [pc, #40]	; (8000044 <_startup+0x2c>)
 800001c:	b510      	push	{r4, lr}
 800001e:	4290      	cmp	r0, r2
 8000020:	d003      	beq.n	800002a <_startup+0x12>
 8000022:	4909      	ldr	r1, [pc, #36]	; (8000048 <_startup+0x30>)
 8000024:	1a12      	subs	r2, r2, r0
 8000026:	f000 f87d 	bl	8000124 <memcpy>
 800002a:	4808      	ldr	r0, [pc, #32]	; (800004c <_startup+0x34>)
 800002c:	4a08      	ldr	r2, [pc, #32]	; (8000050 <_startup+0x38>)
 800002e:	4290      	cmp	r0, r2
 8000030:	d003      	beq.n	800003a <_startup+0x22>
 8000032:	2100      	movs	r1, #0
 8000034:	1a12      	subs	r2, r2, r0
 8000036:	f000 f903 	bl	8000240 <memset>
 800003a:	f000 fd51 	bl	8000ae0 <main>
 800003e:	e7fe      	b.n	800003e <_startup+0x26>
 8000040:	20000000 	.word	0x20000000
 8000044:	20000000 	.word	0x20000000
 8000048:	08000b8c 	.word	0x08000b8c
 800004c:	20000000 	.word	0x20000000
 8000050:	20000000 	.word	0x20000000

08000054 <alvas>:
 8000054:	b500      	push	{lr}
 8000056:	2200      	movs	r2, #0
 8000058:	b083      	sub	sp, #12
 800005a:	4b0b      	ldr	r3, [pc, #44]	; (8000088 <alvas+0x34>)
 800005c:	f000 fc0c 	bl	8000878 <__aeabi_ddiv>
 8000060:	4b0a      	ldr	r3, [pc, #40]	; (800008c <alvas+0x38>)
 8000062:	2200      	movs	r2, #0
 8000064:	f000 fac0 	bl	80005e8 <__aeabi_dmul>
 8000068:	f000 fd0c 	bl	8000a84 <__aeabi_d2iz>
 800006c:	2300      	movs	r3, #0
 800006e:	9301      	str	r3, [sp, #4]
 8000070:	9b01      	ldr	r3, [sp, #4]
 8000072:	4298      	cmp	r0, r3
 8000074:	dd05      	ble.n	8000082 <alvas+0x2e>
 8000076:	9b01      	ldr	r3, [sp, #4]
 8000078:	3301      	adds	r3, #1
 800007a:	9301      	str	r3, [sp, #4]
 800007c:	9b01      	ldr	r3, [sp, #4]
 800007e:	4283      	cmp	r3, r0
 8000080:	dbf9      	blt.n	8000076 <alvas+0x22>
 8000082:	b003      	add	sp, #12
 8000084:	bd00      	pop	{pc}
 8000086:	46c0      	nop			; (mov r8, r8)
 8000088:	408f4000 	.word	0x408f4000
 800008c:	4126a230 	.word	0x4126a230

08000090 <led>:
 8000090:	2801      	cmp	r0, #1
 8000092:	d008      	beq.n	80000a6 <led+0x16>
 8000094:	2800      	cmp	r0, #0
 8000096:	d105      	bne.n	80000a4 <led+0x14>
 8000098:	2290      	movs	r2, #144	; 0x90
 800009a:	2120      	movs	r1, #32
 800009c:	05d2      	lsls	r2, r2, #23
 800009e:	8a93      	ldrh	r3, [r2, #20]
 80000a0:	438b      	bics	r3, r1
 80000a2:	8293      	strh	r3, [r2, #20]
 80000a4:	4770      	bx	lr
 80000a6:	2290      	movs	r2, #144	; 0x90
 80000a8:	2120      	movs	r1, #32
 80000aa:	05d2      	lsls	r2, r2, #23
 80000ac:	8a93      	ldrh	r3, [r2, #20]
 80000ae:	430b      	orrs	r3, r1
 80000b0:	8293      	strh	r3, [r2, #20]
 80000b2:	e7f7      	b.n	80000a4 <led+0x14>

080000b4 <stm32_rcc_init>:
 80000b4:	2280      	movs	r2, #128	; 0x80
 80000b6:	4b17      	ldr	r3, [pc, #92]	; (8000114 <stm32_rcc_init+0x60>)
 80000b8:	0252      	lsls	r2, r2, #9
 80000ba:	6819      	ldr	r1, [r3, #0]
 80000bc:	430a      	orrs	r2, r1
 80000be:	2180      	movs	r1, #128	; 0x80
 80000c0:	601a      	str	r2, [r3, #0]
 80000c2:	0289      	lsls	r1, r1, #10
 80000c4:	681a      	ldr	r2, [r3, #0]
 80000c6:	420a      	tst	r2, r1
 80000c8:	d0fc      	beq.n	80000c4 <stm32_rcc_init+0x10>
 80000ca:	685a      	ldr	r2, [r3, #4]
 80000cc:	4912      	ldr	r1, [pc, #72]	; (8000118 <stm32_rcc_init+0x64>)
 80000ce:	4011      	ands	r1, r2
 80000d0:	2280      	movs	r2, #128	; 0x80
 80000d2:	0312      	lsls	r2, r2, #12
 80000d4:	430a      	orrs	r2, r1
 80000d6:	605a      	str	r2, [r3, #4]
 80000d8:	685a      	ldr	r2, [r3, #4]
 80000da:	4910      	ldr	r1, [pc, #64]	; (800011c <stm32_rcc_init+0x68>)
 80000dc:	4011      	ands	r1, r2
 80000de:	2280      	movs	r2, #128	; 0x80
 80000e0:	0252      	lsls	r2, r2, #9
 80000e2:	430a      	orrs	r2, r1
 80000e4:	605a      	str	r2, [r3, #4]
 80000e6:	2280      	movs	r2, #128	; 0x80
 80000e8:	6819      	ldr	r1, [r3, #0]
 80000ea:	0452      	lsls	r2, r2, #17
 80000ec:	430a      	orrs	r2, r1
 80000ee:	2180      	movs	r1, #128	; 0x80
 80000f0:	601a      	str	r2, [r3, #0]
 80000f2:	4a08      	ldr	r2, [pc, #32]	; (8000114 <stm32_rcc_init+0x60>)
 80000f4:	0489      	lsls	r1, r1, #18
 80000f6:	6813      	ldr	r3, [r2, #0]
 80000f8:	420b      	tst	r3, r1
 80000fa:	d0fc      	beq.n	80000f6 <stm32_rcc_init+0x42>
 80000fc:	2001      	movs	r0, #1
 80000fe:	4908      	ldr	r1, [pc, #32]	; (8000120 <stm32_rcc_init+0x6c>)
 8000100:	680b      	ldr	r3, [r1, #0]
 8000102:	4303      	orrs	r3, r0
 8000104:	600b      	str	r3, [r1, #0]
 8000106:	2103      	movs	r1, #3
 8000108:	6853      	ldr	r3, [r2, #4]
 800010a:	438b      	bics	r3, r1
 800010c:	3901      	subs	r1, #1
 800010e:	430b      	orrs	r3, r1
 8000110:	6053      	str	r3, [r2, #4]
 8000112:	4770      	bx	lr
 8000114:	40021000 	.word	0x40021000
 8000118:	ffc3ffff 	.word	0xffc3ffff
 800011c:	fffe7fff 	.word	0xfffe7fff
 8000120:	40022000 	.word	0x40022000

08000124 <memcpy>:
 8000124:	e352000f 	cmp	r2, #15
 8000128:	9a000035 	bls	8000204 <memcpy+0xe0>
 800012c:	e1803001 	orr	r3, r0, r1
 8000130:	e3130003 	tst	r3, #3
 8000134:	1a00003e 	bne	8000234 <memcpy+0x110>
 8000138:	e92d41f0 	push	{r4, r5, r6, r7, r8, lr}
 800013c:	e2428010 	sub	r8, r2, #16
 8000140:	e1a08228 	lsr	r8, r8, #4
 8000144:	e2817020 	add	r7, r1, #32
 8000148:	e0877208 	add	r7, r7, r8, lsl #4
 800014c:	e2813010 	add	r3, r1, #16
 8000150:	e280c010 	add	ip, r0, #16
 8000154:	e5136010 	ldr	r6, [r3, #-16]
 8000158:	e513500c 	ldr	r5, [r3, #-12]
 800015c:	e9134010 	ldmdb	r3, {r4, lr}
 8000160:	e2833010 	add	r3, r3, #16
 8000164:	e1530007 	cmp	r3, r7
 8000168:	e50c6010 	str	r6, [ip, #-16]
 800016c:	e50c500c 	str	r5, [ip, #-12]
 8000170:	e90c4010 	stmdb	ip, {r4, lr}
 8000174:	e28cc010 	add	ip, ip, #16
 8000178:	1afffff5 	bne	8000154 <memcpy+0x30>
 800017c:	e288c001 	add	ip, r8, #1
 8000180:	e1a0c20c 	lsl	ip, ip, #4
 8000184:	e312000c 	tst	r2, #12
 8000188:	e202e00f 	and	lr, r2, #15
 800018c:	e081100c 	add	r1, r1, ip
 8000190:	01a0200e 	moveq	r2, lr
 8000194:	e080c00c 	add	ip, r0, ip
 8000198:	0a00000d 	beq	80001d4 <memcpy+0xb0>
 800019c:	e1a04001 	mov	r4, r1
 80001a0:	e24ee004 	sub	lr, lr, #4
 80001a4:	e1a0e12e 	lsr	lr, lr, #2
 80001a8:	e08c610e 	add	r6, ip, lr, lsl #2
 80001ac:	e24c3004 	sub	r3, ip, #4
 80001b0:	e4945004 	ldr	r5, [r4], #4
 80001b4:	e5a35004 	str	r5, [r3, #4]!
 80001b8:	e1530006 	cmp	r3, r6
 80001bc:	1afffffb 	bne	80001b0 <memcpy+0x8c>
 80001c0:	e28ee001 	add	lr, lr, #1
 80001c4:	e1a0e10e 	lsl	lr, lr, #2
 80001c8:	e08cc00e 	add	ip, ip, lr
 80001cc:	e081100e 	add	r1, r1, lr
 80001d0:	e2022003 	and	r2, r2, #3
 80001d4:	e3520000 	cmp	r2, #0
 80001d8:	e2422001 	sub	r2, r2, #1
 80001dc:	12822001 	addne	r2, r2, #1
 80001e0:	10813002 	addne	r3, r1, r2
 80001e4:	124c2001 	subne	r2, ip, #1
 80001e8:	0a000003 	beq	80001fc <memcpy+0xd8>
 80001ec:	e4d1c001 	ldrb	ip, [r1], #1
 80001f0:	e1510003 	cmp	r1, r3
 80001f4:	e5e2c001 	strb	ip, [r2, #1]!
 80001f8:	1afffffb 	bne	80001ec <memcpy+0xc8>
 80001fc:	e8bd41f0 	pop	{r4, r5, r6, r7, r8, lr}
 8000200:	e12fff1e 	bx	lr
 8000204:	e3520000 	cmp	r2, #0
 8000208:	e1a0c000 	mov	ip, r0
 800020c:	e2422001 	sub	r2, r2, #1
 8000210:	012fff1e 	bxeq	lr
 8000214:	e2822001 	add	r2, r2, #1
 8000218:	e0813002 	add	r3, r1, r2
 800021c:	e24c2001 	sub	r2, ip, #1
 8000220:	e4d1c001 	ldrb	ip, [r1], #1
 8000224:	e1510003 	cmp	r1, r3
 8000228:	e5e2c001 	strb	ip, [r2, #1]!
 800022c:	1afffffb 	bne	8000220 <memcpy+0xfc>
 8000230:	e12fff1e 	bx	lr
 8000234:	e2422001 	sub	r2, r2, #1
 8000238:	e1a0c000 	mov	ip, r0
 800023c:	eafffff4 	b	8000214 <memcpy+0xf0>

08000240 <memset>:
 8000240:	e3100003 	tst	r0, #3
 8000244:	0a00003f 	beq	8000348 <memset+0x108>
 8000248:	e3520000 	cmp	r2, #0
 800024c:	e2422001 	sub	r2, r2, #1
 8000250:	012fff1e 	bxeq	lr
 8000254:	e201c0ff 	and	ip, r1, #255	; 0xff
 8000258:	e1a03000 	mov	r3, r0
 800025c:	ea000002 	b	800026c <memset+0x2c>
 8000260:	e2422001 	sub	r2, r2, #1
 8000264:	e3720001 	cmn	r2, #1
 8000268:	012fff1e 	bxeq	lr
 800026c:	e4c3c001 	strb	ip, [r3], #1
 8000270:	e3130003 	tst	r3, #3
 8000274:	1afffff9 	bne	8000260 <memset+0x20>
 8000278:	e3520003 	cmp	r2, #3
 800027c:	9a000027 	bls	8000320 <memset+0xe0>
 8000280:	e92d4030 	push	{r4, r5, lr}
 8000284:	e201e0ff 	and	lr, r1, #255	; 0xff
 8000288:	e18ee40e 	orr	lr, lr, lr, lsl #8
 800028c:	e352000f 	cmp	r2, #15
 8000290:	e18ee80e 	orr	lr, lr, lr, lsl #16
 8000294:	9a00002d 	bls	8000350 <memset+0x110>
 8000298:	e2424010 	sub	r4, r2, #16
 800029c:	e1a04224 	lsr	r4, r4, #4
 80002a0:	e2835020 	add	r5, r3, #32
 80002a4:	e0855204 	add	r5, r5, r4, lsl #4
 80002a8:	e283c010 	add	ip, r3, #16
 80002ac:	e50ce010 	str	lr, [ip, #-16]
 80002b0:	e50ce00c 	str	lr, [ip, #-12]
 80002b4:	e50ce008 	str	lr, [ip, #-8]
 80002b8:	e50ce004 	str	lr, [ip, #-4]
 80002bc:	e28cc010 	add	ip, ip, #16
 80002c0:	e15c0005 	cmp	ip, r5
 80002c4:	1afffff8 	bne	80002ac <memset+0x6c>
 80002c8:	e284c001 	add	ip, r4, #1
 80002cc:	e312000c 	tst	r2, #12
 80002d0:	e083c20c 	add	ip, r3, ip, lsl #4
 80002d4:	e202200f 	and	r2, r2, #15
 80002d8:	0a000018 	beq	8000340 <memset+0x100>
 80002dc:	e2423004 	sub	r3, r2, #4
 80002e0:	e3c33003 	bic	r3, r3, #3
 80002e4:	e2833004 	add	r3, r3, #4
 80002e8:	e08c3003 	add	r3, ip, r3
 80002ec:	e48ce004 	str	lr, [ip], #4
 80002f0:	e153000c 	cmp	r3, ip
 80002f4:	1afffffc 	bne	80002ec <memset+0xac>
 80002f8:	e2022003 	and	r2, r2, #3
 80002fc:	e3520000 	cmp	r2, #0
 8000300:	0a000004 	beq	8000318 <memset+0xd8>
 8000304:	e20110ff 	and	r1, r1, #255	; 0xff
 8000308:	e0832002 	add	r2, r3, r2
 800030c:	e4c31001 	strb	r1, [r3], #1
 8000310:	e1520003 	cmp	r2, r3
 8000314:	1afffffc 	bne	800030c <memset+0xcc>
 8000318:	e8bd4030 	pop	{r4, r5, lr}
 800031c:	e12fff1e 	bx	lr
 8000320:	e3520000 	cmp	r2, #0
 8000324:	012fff1e 	bxeq	lr
 8000328:	e20110ff 	and	r1, r1, #255	; 0xff
 800032c:	e0832002 	add	r2, r3, r2
 8000330:	e4c31001 	strb	r1, [r3], #1
 8000334:	e1520003 	cmp	r2, r3
 8000338:	1afffffc 	bne	8000330 <memset+0xf0>
 800033c:	e12fff1e 	bx	lr
 8000340:	e1a0300c 	mov	r3, ip
 8000344:	eaffffec 	b	80002fc <memset+0xbc>
 8000348:	e1a03000 	mov	r3, r0
 800034c:	eaffffc9 	b	8000278 <memset+0x38>
 8000350:	e1a0c003 	mov	ip, r3
 8000354:	eaffffe0 	b	80002dc <memset+0x9c>
 8000358:	e92d4070 	push	{r4, r5, r6, lr}
 800035c:	e3a0c0ff 	mov	ip, #255	; 0xff
 8000360:	e38ccc07 	orr	ip, ip, #1792	; 0x700
 8000364:	e01c4a21 	ands	r4, ip, r1, lsr #20
 8000368:	101c5a23 	andsne	r5, ip, r3, lsr #20
 800036c:	1134000c 	teqne	r4, ip
 8000370:	1135000c 	teqne	r5, ip
 8000374:	0b000075 	bleq	8000550 <memset+0x310>
 8000378:	e0844005 	add	r4, r4, r5
 800037c:	e0216003 	eor	r6, r1, r3
 8000380:	e1c11a8c 	bic	r1, r1, ip, lsl #21
 8000384:	e1c33a8c 	bic	r3, r3, ip, lsl #21
 8000388:	e1905601 	orrs	r5, r0, r1, lsl #12
 800038c:	11925603 	orrsne	r5, r2, r3, lsl #12
 8000390:	e3811601 	orr	r1, r1, #1048576	; 0x100000
 8000394:	e3833601 	orr	r3, r3, #1048576	; 0x100000
 8000398:	0a00001d 	beq	8000414 <memset+0x1d4>
 800039c:	e08ec290 	umull	ip, lr, r0, r2
 80003a0:	e3a05000 	mov	r5, #0
 80003a4:	e0a5e291 	umlal	lr, r5, r1, r2
 80003a8:	e2062102 	and	r2, r6, #-2147483648	; 0x80000000
 80003ac:	e0a5e390 	umlal	lr, r5, r0, r3
 80003b0:	e3a06000 	mov	r6, #0
 80003b4:	e0a65391 	umlal	r5, r6, r1, r3
 80003b8:	e33c0000 	teq	ip, #0
 80003bc:	138ee001 	orrne	lr, lr, #1
 80003c0:	e24440ff 	sub	r4, r4, #255	; 0xff
 80003c4:	e3560c02 	cmp	r6, #512	; 0x200
 80003c8:	e2c44c03 	sbc	r4, r4, #768	; 0x300
 80003cc:	2a000002 	bcs	80003dc <memset+0x19c>
 80003d0:	e1b0e08e 	lsls	lr, lr, #1
 80003d4:	e0b55005 	adcs	r5, r5, r5
 80003d8:	e0a66006 	adc	r6, r6, r6
 80003dc:	e1821586 	orr	r1, r2, r6, lsl #11
 80003e0:	e1811aa5 	orr	r1, r1, r5, lsr #21
 80003e4:	e1a00585 	lsl	r0, r5, #11
 80003e8:	e1800aae 	orr	r0, r0, lr, lsr #21
 80003ec:	e1a0e58e 	lsl	lr, lr, #11
 80003f0:	e254c0fd 	subs	ip, r4, #253	; 0xfd
 80003f4:	835c0c07 	cmphi	ip, #1792	; 0x700
 80003f8:	8a000011 	bhi	8000444 <memset+0x204>
 80003fc:	e35e0102 	cmp	lr, #-2147483648	; 0x80000000
 8000400:	01b0e0a0 	lsrseq	lr, r0, #1
 8000404:	e2b00000 	adcs	r0, r0, #0
 8000408:	e0a11a04 	adc	r1, r1, r4, lsl #20
 800040c:	e8bd4070 	pop	{r4, r5, r6, lr}
 8000410:	e12fff1e 	bx	lr
 8000414:	e2066102 	and	r6, r6, #-2147483648	; 0x80000000
 8000418:	e1861001 	orr	r1, r6, r1
 800041c:	e1800002 	orr	r0, r0, r2
 8000420:	e0211003 	eor	r1, r1, r3
 8000424:	e05440ac 	subs	r4, r4, ip, lsr #1
 8000428:	c074500c 	rsbsgt	r5, r4, ip
 800042c:	c1811a04 	orrgt	r1, r1, r4, lsl #20
 8000430:	c8bd4070 	popgt	{r4, r5, r6, lr}
 8000434:	c12fff1e 	bxgt	lr
 8000438:	e3811601 	orr	r1, r1, #1048576	; 0x100000
 800043c:	e3a0e000 	mov	lr, #0
 8000440:	e2544001 	subs	r4, r4, #1
 8000444:	ca00005d 	bgt	80005c0 <memset+0x380>
 8000448:	e3740036 	cmn	r4, #54	; 0x36
 800044c:	d3a00000 	movle	r0, #0
 8000450:	d2011102 	andle	r1, r1, #-2147483648	; 0x80000000
 8000454:	d8bd4070 	pople	{r4, r5, r6, lr}
 8000458:	d12fff1e 	bxle	lr
 800045c:	e2644000 	rsb	r4, r4, #0
 8000460:	e2544020 	subs	r4, r4, #32
 8000464:	aa00001a 	bge	80004d4 <memset+0x294>
 8000468:	e294400c 	adds	r4, r4, #12
 800046c:	ca00000c 	bgt	80004a4 <memset+0x264>
 8000470:	e2844014 	add	r4, r4, #20
 8000474:	e2645020 	rsb	r5, r4, #32
 8000478:	e1a03510 	lsl	r3, r0, r5
 800047c:	e1a00430 	lsr	r0, r0, r4
 8000480:	e1800511 	orr	r0, r0, r1, lsl r5
 8000484:	e2012102 	and	r2, r1, #-2147483648	; 0x80000000
 8000488:	e3c11102 	bic	r1, r1, #-2147483648	; 0x80000000
 800048c:	e0900fa3 	adds	r0, r0, r3, lsr #31
 8000490:	e0a21431 	adc	r1, r2, r1, lsr r4
 8000494:	e19ee083 	orrs	lr, lr, r3, lsl #1
 8000498:	01c00fa3 	biceq	r0, r0, r3, lsr #31
 800049c:	e8bd4070 	pop	{r4, r5, r6, lr}
 80004a0:	e12fff1e 	bx	lr
 80004a4:	e264400c 	rsb	r4, r4, #12
 80004a8:	e2645020 	rsb	r5, r4, #32
 80004ac:	e1a03410 	lsl	r3, r0, r4
 80004b0:	e1a00530 	lsr	r0, r0, r5
 80004b4:	e1800411 	orr	r0, r0, r1, lsl r4
 80004b8:	e2011102 	and	r1, r1, #-2147483648	; 0x80000000
 80004bc:	e0900fa3 	adds	r0, r0, r3, lsr #31
 80004c0:	e2a11000 	adc	r1, r1, #0
 80004c4:	e19ee083 	orrs	lr, lr, r3, lsl #1
 80004c8:	01c00fa3 	biceq	r0, r0, r3, lsr #31
 80004cc:	e8bd4070 	pop	{r4, r5, r6, lr}
 80004d0:	e12fff1e 	bx	lr
 80004d4:	e2645020 	rsb	r5, r4, #32
 80004d8:	e18ee510 	orr	lr, lr, r0, lsl r5
 80004dc:	e1a03430 	lsr	r3, r0, r4
 80004e0:	e1833511 	orr	r3, r3, r1, lsl r5
 80004e4:	e1a00431 	lsr	r0, r1, r4
 80004e8:	e2011102 	and	r1, r1, #-2147483648	; 0x80000000
 80004ec:	e1c00431 	bic	r0, r0, r1, lsr r4
 80004f0:	e0800fa3 	add	r0, r0, r3, lsr #31
 80004f4:	e19ee083 	orrs	lr, lr, r3, lsl #1
 80004f8:	01c00fa3 	biceq	r0, r0, r3, lsr #31
 80004fc:	e8bd4070 	pop	{r4, r5, r6, lr}
 8000500:	e12fff1e 	bx	lr
 8000504:	e3340000 	teq	r4, #0
 8000508:	1a000008 	bne	8000530 <memset+0x2f0>
 800050c:	e2016102 	and	r6, r1, #-2147483648	; 0x80000000
 8000510:	e1b00080 	lsls	r0, r0, #1
 8000514:	e0a11001 	adc	r1, r1, r1
 8000518:	e3110601 	tst	r1, #1048576	; 0x100000
 800051c:	02444001 	subeq	r4, r4, #1
 8000520:	0afffffa 	beq	8000510 <memset+0x2d0>
 8000524:	e1811006 	orr	r1, r1, r6
 8000528:	e3350000 	teq	r5, #0
 800052c:	112fff1e 	bxne	lr
 8000530:	e2036102 	and	r6, r3, #-2147483648	; 0x80000000
 8000534:	e1b02082 	lsls	r2, r2, #1
 8000538:	e0a33003 	adc	r3, r3, r3
 800053c:	e3130601 	tst	r3, #1048576	; 0x100000
 8000540:	02455001 	subeq	r5, r5, #1
 8000544:	0afffffa 	beq	8000534 <memset+0x2f4>
 8000548:	e1833006 	orr	r3, r3, r6
 800054c:	e12fff1e 	bx	lr
 8000550:	e134000c 	teq	r4, ip
 8000554:	e00c5a23 	and	r5, ip, r3, lsr #20
 8000558:	1135000c 	teqne	r5, ip
 800055c:	0a000007 	beq	8000580 <memset+0x340>
 8000560:	e1906081 	orrs	r6, r0, r1, lsl #1
 8000564:	11926083 	orrsne	r6, r2, r3, lsl #1
 8000568:	1affffe5 	bne	8000504 <memset+0x2c4>
 800056c:	e0211003 	eor	r1, r1, r3
 8000570:	e2011102 	and	r1, r1, #-2147483648	; 0x80000000
 8000574:	e3a00000 	mov	r0, #0
 8000578:	e8bd4070 	pop	{r4, r5, r6, lr}
 800057c:	e12fff1e 	bx	lr
 8000580:	e1906081 	orrs	r6, r0, r1, lsl #1
 8000584:	01a00002 	moveq	r0, r2
 8000588:	01a01003 	moveq	r1, r3
 800058c:	11926083 	orrsne	r6, r2, r3, lsl #1
 8000590:	0a000010 	beq	80005d8 <memset+0x398>
 8000594:	e134000c 	teq	r4, ip
 8000598:	1a000001 	bne	80005a4 <memset+0x364>
 800059c:	e1906601 	orrs	r6, r0, r1, lsl #12
 80005a0:	1a00000c 	bne	80005d8 <memset+0x398>
 80005a4:	e135000c 	teq	r5, ip
 80005a8:	1a000003 	bne	80005bc <memset+0x37c>
 80005ac:	e1926603 	orrs	r6, r2, r3, lsl #12
 80005b0:	11a00002 	movne	r0, r2
 80005b4:	11a01003 	movne	r1, r3
 80005b8:	1a000006 	bne	80005d8 <memset+0x398>
 80005bc:	e0211003 	eor	r1, r1, r3
 80005c0:	e2011102 	and	r1, r1, #-2147483648	; 0x80000000
 80005c4:	e381147f 	orr	r1, r1, #2130706432	; 0x7f000000
 80005c8:	e381160f 	orr	r1, r1, #15728640	; 0xf00000
 80005cc:	e3a00000 	mov	r0, #0
 80005d0:	e8bd4070 	pop	{r4, r5, r6, lr}
 80005d4:	e12fff1e 	bx	lr
 80005d8:	e381147f 	orr	r1, r1, #2130706432	; 0x7f000000
 80005dc:	e381173e 	orr	r1, r1, #16252928	; 0xf80000
 80005e0:	e8bd4070 	pop	{r4, r5, r6, lr}
 80005e4:	e12fff1e 	bx	lr

080005e8 <__aeabi_dmul>:
 80005e8:	e92d4070 	push	{r4, r5, r6, lr}
 80005ec:	e3a0c0ff 	mov	ip, #255	; 0xff
 80005f0:	e38ccc07 	orr	ip, ip, #1792	; 0x700
 80005f4:	e01c4a21 	ands	r4, ip, r1, lsr #20
 80005f8:	101c5a23 	andsne	r5, ip, r3, lsr #20
 80005fc:	1134000c 	teqne	r4, ip
 8000600:	1135000c 	teqne	r5, ip
 8000604:	0b000075 	bleq	80007e0 <__aeabi_dmul+0x1f8>
 8000608:	e0844005 	add	r4, r4, r5
 800060c:	e0216003 	eor	r6, r1, r3
 8000610:	e1c11a8c 	bic	r1, r1, ip, lsl #21
 8000614:	e1c33a8c 	bic	r3, r3, ip, lsl #21
 8000618:	e1905601 	orrs	r5, r0, r1, lsl #12
 800061c:	11925603 	orrsne	r5, r2, r3, lsl #12
 8000620:	e3811601 	orr	r1, r1, #1048576	; 0x100000
 8000624:	e3833601 	orr	r3, r3, #1048576	; 0x100000
 8000628:	0a00001d 	beq	80006a4 <__aeabi_dmul+0xbc>
 800062c:	e08ec290 	umull	ip, lr, r0, r2
 8000630:	e3a05000 	mov	r5, #0
 8000634:	e0a5e291 	umlal	lr, r5, r1, r2
 8000638:	e2062102 	and	r2, r6, #-2147483648	; 0x80000000
 800063c:	e0a5e390 	umlal	lr, r5, r0, r3
 8000640:	e3a06000 	mov	r6, #0
 8000644:	e0a65391 	umlal	r5, r6, r1, r3
 8000648:	e33c0000 	teq	ip, #0
 800064c:	138ee001 	orrne	lr, lr, #1
 8000650:	e24440ff 	sub	r4, r4, #255	; 0xff
 8000654:	e3560c02 	cmp	r6, #512	; 0x200
 8000658:	e2c44c03 	sbc	r4, r4, #768	; 0x300
 800065c:	2a000002 	bcs	800066c <__aeabi_dmul+0x84>
 8000660:	e1b0e08e 	lsls	lr, lr, #1
 8000664:	e0b55005 	adcs	r5, r5, r5
 8000668:	e0a66006 	adc	r6, r6, r6
 800066c:	e1821586 	orr	r1, r2, r6, lsl #11
 8000670:	e1811aa5 	orr	r1, r1, r5, lsr #21
 8000674:	e1a00585 	lsl	r0, r5, #11
 8000678:	e1800aae 	orr	r0, r0, lr, lsr #21
 800067c:	e1a0e58e 	lsl	lr, lr, #11
 8000680:	e254c0fd 	subs	ip, r4, #253	; 0xfd
 8000684:	835c0c07 	cmphi	ip, #1792	; 0x700
 8000688:	8a000011 	bhi	80006d4 <__aeabi_dmul+0xec>
 800068c:	e35e0102 	cmp	lr, #-2147483648	; 0x80000000
 8000690:	01b0e0a0 	lsrseq	lr, r0, #1
 8000694:	e2b00000 	adcs	r0, r0, #0
 8000698:	e0a11a04 	adc	r1, r1, r4, lsl #20
 800069c:	e8bd4070 	pop	{r4, r5, r6, lr}
 80006a0:	e12fff1e 	bx	lr
 80006a4:	e2066102 	and	r6, r6, #-2147483648	; 0x80000000
 80006a8:	e1861001 	orr	r1, r6, r1
 80006ac:	e1800002 	orr	r0, r0, r2
 80006b0:	e0211003 	eor	r1, r1, r3
 80006b4:	e05440ac 	subs	r4, r4, ip, lsr #1
 80006b8:	c074500c 	rsbsgt	r5, r4, ip
 80006bc:	c1811a04 	orrgt	r1, r1, r4, lsl #20
 80006c0:	c8bd4070 	popgt	{r4, r5, r6, lr}
 80006c4:	c12fff1e 	bxgt	lr
 80006c8:	e3811601 	orr	r1, r1, #1048576	; 0x100000
 80006cc:	e3a0e000 	mov	lr, #0
 80006d0:	e2544001 	subs	r4, r4, #1
 80006d4:	ca00005d 	bgt	8000850 <__aeabi_dmul+0x268>
 80006d8:	e3740036 	cmn	r4, #54	; 0x36
 80006dc:	d3a00000 	movle	r0, #0
 80006e0:	d2011102 	andle	r1, r1, #-2147483648	; 0x80000000
 80006e4:	d8bd4070 	pople	{r4, r5, r6, lr}
 80006e8:	d12fff1e 	bxle	lr
 80006ec:	e2644000 	rsb	r4, r4, #0
 80006f0:	e2544020 	subs	r4, r4, #32
 80006f4:	aa00001a 	bge	8000764 <__aeabi_dmul+0x17c>
 80006f8:	e294400c 	adds	r4, r4, #12
 80006fc:	ca00000c 	bgt	8000734 <__aeabi_dmul+0x14c>
 8000700:	e2844014 	add	r4, r4, #20
 8000704:	e2645020 	rsb	r5, r4, #32
 8000708:	e1a03510 	lsl	r3, r0, r5
 800070c:	e1a00430 	lsr	r0, r0, r4
 8000710:	e1800511 	orr	r0, r0, r1, lsl r5
 8000714:	e2012102 	and	r2, r1, #-2147483648	; 0x80000000
 8000718:	e3c11102 	bic	r1, r1, #-2147483648	; 0x80000000
 800071c:	e0900fa3 	adds	r0, r0, r3, lsr #31
 8000720:	e0a21431 	adc	r1, r2, r1, lsr r4
 8000724:	e19ee083 	orrs	lr, lr, r3, lsl #1
 8000728:	01c00fa3 	biceq	r0, r0, r3, lsr #31
 800072c:	e8bd4070 	pop	{r4, r5, r6, lr}
 8000730:	e12fff1e 	bx	lr
 8000734:	e264400c 	rsb	r4, r4, #12
 8000738:	e2645020 	rsb	r5, r4, #32
 800073c:	e1a03410 	lsl	r3, r0, r4
 8000740:	e1a00530 	lsr	r0, r0, r5
 8000744:	e1800411 	orr	r0, r0, r1, lsl r4
 8000748:	e2011102 	and	r1, r1, #-2147483648	; 0x80000000
 800074c:	e0900fa3 	adds	r0, r0, r3, lsr #31
 8000750:	e2a11000 	adc	r1, r1, #0
 8000754:	e19ee083 	orrs	lr, lr, r3, lsl #1
 8000758:	01c00fa3 	biceq	r0, r0, r3, lsr #31
 800075c:	e8bd4070 	pop	{r4, r5, r6, lr}
 8000760:	e12fff1e 	bx	lr
 8000764:	e2645020 	rsb	r5, r4, #32
 8000768:	e18ee510 	orr	lr, lr, r0, lsl r5
 800076c:	e1a03430 	lsr	r3, r0, r4
 8000770:	e1833511 	orr	r3, r3, r1, lsl r5
 8000774:	e1a00431 	lsr	r0, r1, r4
 8000778:	e2011102 	and	r1, r1, #-2147483648	; 0x80000000
 800077c:	e1c00431 	bic	r0, r0, r1, lsr r4
 8000780:	e0800fa3 	add	r0, r0, r3, lsr #31
 8000784:	e19ee083 	orrs	lr, lr, r3, lsl #1
 8000788:	01c00fa3 	biceq	r0, r0, r3, lsr #31
 800078c:	e8bd4070 	pop	{r4, r5, r6, lr}
 8000790:	e12fff1e 	bx	lr
 8000794:	e3340000 	teq	r4, #0
 8000798:	1a000008 	bne	80007c0 <__aeabi_dmul+0x1d8>
 800079c:	e2016102 	and	r6, r1, #-2147483648	; 0x80000000
 80007a0:	e1b00080 	lsls	r0, r0, #1
 80007a4:	e0a11001 	adc	r1, r1, r1
 80007a8:	e3110601 	tst	r1, #1048576	; 0x100000
 80007ac:	02444001 	subeq	r4, r4, #1
 80007b0:	0afffffa 	beq	80007a0 <__aeabi_dmul+0x1b8>
 80007b4:	e1811006 	orr	r1, r1, r6
 80007b8:	e3350000 	teq	r5, #0
 80007bc:	112fff1e 	bxne	lr
 80007c0:	e2036102 	and	r6, r3, #-2147483648	; 0x80000000
 80007c4:	e1b02082 	lsls	r2, r2, #1
 80007c8:	e0a33003 	adc	r3, r3, r3
 80007cc:	e3130601 	tst	r3, #1048576	; 0x100000
 80007d0:	02455001 	subeq	r5, r5, #1
 80007d4:	0afffffa 	beq	80007c4 <__aeabi_dmul+0x1dc>
 80007d8:	e1833006 	orr	r3, r3, r6
 80007dc:	e12fff1e 	bx	lr
 80007e0:	e134000c 	teq	r4, ip
 80007e4:	e00c5a23 	and	r5, ip, r3, lsr #20
 80007e8:	1135000c 	teqne	r5, ip
 80007ec:	0a000007 	beq	8000810 <__aeabi_dmul+0x228>
 80007f0:	e1906081 	orrs	r6, r0, r1, lsl #1
 80007f4:	11926083 	orrsne	r6, r2, r3, lsl #1
 80007f8:	1affffe5 	bne	8000794 <__aeabi_dmul+0x1ac>
 80007fc:	e0211003 	eor	r1, r1, r3
 8000800:	e2011102 	and	r1, r1, #-2147483648	; 0x80000000
 8000804:	e3a00000 	mov	r0, #0
 8000808:	e8bd4070 	pop	{r4, r5, r6, lr}
 800080c:	e12fff1e 	bx	lr
 8000810:	e1906081 	orrs	r6, r0, r1, lsl #1
 8000814:	01a00002 	moveq	r0, r2
 8000818:	01a01003 	moveq	r1, r3
 800081c:	11926083 	orrsne	r6, r2, r3, lsl #1
 8000820:	0a000010 	beq	8000868 <__aeabi_dmul+0x280>
 8000824:	e134000c 	teq	r4, ip
 8000828:	1a000001 	bne	8000834 <__aeabi_dmul+0x24c>
 800082c:	e1906601 	orrs	r6, r0, r1, lsl #12
 8000830:	1a00000c 	bne	8000868 <__aeabi_dmul+0x280>
 8000834:	e135000c 	teq	r5, ip
 8000838:	1a000003 	bne	800084c <__aeabi_dmul+0x264>
 800083c:	e1926603 	orrs	r6, r2, r3, lsl #12
 8000840:	11a00002 	movne	r0, r2
 8000844:	11a01003 	movne	r1, r3
 8000848:	1a000006 	bne	8000868 <__aeabi_dmul+0x280>
 800084c:	e0211003 	eor	r1, r1, r3
 8000850:	e2011102 	and	r1, r1, #-2147483648	; 0x80000000
 8000854:	e381147f 	orr	r1, r1, #2130706432	; 0x7f000000
 8000858:	e381160f 	orr	r1, r1, #15728640	; 0xf00000
 800085c:	e3a00000 	mov	r0, #0
 8000860:	e8bd4070 	pop	{r4, r5, r6, lr}
 8000864:	e12fff1e 	bx	lr
 8000868:	e381147f 	orr	r1, r1, #2130706432	; 0x7f000000
 800086c:	e381173e 	orr	r1, r1, #16252928	; 0xf80000
 8000870:	e8bd4070 	pop	{r4, r5, r6, lr}
 8000874:	e12fff1e 	bx	lr

08000878 <__aeabi_ddiv>:
 8000878:	e92d4070 	push	{r4, r5, r6, lr}
 800087c:	e3a0c0ff 	mov	ip, #255	; 0xff
 8000880:	e38ccc07 	orr	ip, ip, #1792	; 0x700
 8000884:	e01c4a21 	ands	r4, ip, r1, lsr #20
 8000888:	101c5a23 	andsne	r5, ip, r3, lsr #20
 800088c:	1134000c 	teqne	r4, ip
 8000890:	1135000c 	teqne	r5, ip
 8000894:	0b00005e 	bleq	8000a14 <__aeabi_ddiv+0x19c>
 8000898:	e0444005 	sub	r4, r4, r5
 800089c:	e021e003 	eor	lr, r1, r3
 80008a0:	e1925603 	orrs	r5, r2, r3, lsl #12
 80008a4:	e1a01601 	lsl	r1, r1, #12
 80008a8:	0a00004c 	beq	80009e0 <__aeabi_ddiv+0x168>
 80008ac:	e1a03603 	lsl	r3, r3, #12
 80008b0:	e3a05201 	mov	r5, #268435456	; 0x10000000
 80008b4:	e1853223 	orr	r3, r5, r3, lsr #4
 80008b8:	e1833c22 	orr	r3, r3, r2, lsr #24
 80008bc:	e1a02402 	lsl	r2, r2, #8
 80008c0:	e1855221 	orr	r5, r5, r1, lsr #4
 80008c4:	e1855c20 	orr	r5, r5, r0, lsr #24
 80008c8:	e1a06400 	lsl	r6, r0, #8
 80008cc:	e20e1102 	and	r1, lr, #-2147483648	; 0x80000000
 80008d0:	e1550003 	cmp	r5, r3
 80008d4:	01560002 	cmpeq	r6, r2
 80008d8:	e2a440fd 	adc	r4, r4, #253	; 0xfd
 80008dc:	e2844c03 	add	r4, r4, #768	; 0x300
 80008e0:	2a000001 	bcs	80008ec <__aeabi_ddiv+0x74>
 80008e4:	e1b030a3 	lsrs	r3, r3, #1
 80008e8:	e1a02062 	rrx	r2, r2
 80008ec:	e0566002 	subs	r6, r6, r2
 80008f0:	e0c55003 	sbc	r5, r5, r3
 80008f4:	e1b030a3 	lsrs	r3, r3, #1
 80008f8:	e1a02062 	rrx	r2, r2
 80008fc:	e3a00601 	mov	r0, #1048576	; 0x100000
 8000900:	e3a0c702 	mov	ip, #524288	; 0x80000
 8000904:	e056e002 	subs	lr, r6, r2
 8000908:	e0d5e003 	sbcs	lr, r5, r3
 800090c:	20466002 	subcs	r6, r6, r2
 8000910:	21a0500e 	movcs	r5, lr
 8000914:	2180000c 	orrcs	r0, r0, ip
 8000918:	e1b030a3 	lsrs	r3, r3, #1
 800091c:	e1a02062 	rrx	r2, r2
 8000920:	e056e002 	subs	lr, r6, r2
 8000924:	e0d5e003 	sbcs	lr, r5, r3
 8000928:	20466002 	subcs	r6, r6, r2
 800092c:	21a0500e 	movcs	r5, lr
 8000930:	218000ac 	orrcs	r0, r0, ip, lsr #1
 8000934:	e1b030a3 	lsrs	r3, r3, #1
 8000938:	e1a02062 	rrx	r2, r2
 800093c:	e056e002 	subs	lr, r6, r2
 8000940:	e0d5e003 	sbcs	lr, r5, r3
 8000944:	20466002 	subcs	r6, r6, r2
 8000948:	21a0500e 	movcs	r5, lr
 800094c:	2180012c 	orrcs	r0, r0, ip, lsr #2
 8000950:	e1b030a3 	lsrs	r3, r3, #1
 8000954:	e1a02062 	rrx	r2, r2
 8000958:	e056e002 	subs	lr, r6, r2
 800095c:	e0d5e003 	sbcs	lr, r5, r3
 8000960:	20466002 	subcs	r6, r6, r2
 8000964:	21a0500e 	movcs	r5, lr
 8000968:	218001ac 	orrcs	r0, r0, ip, lsr #3
 800096c:	e195e006 	orrs	lr, r5, r6
 8000970:	0a00000d 	beq	80009ac <__aeabi_ddiv+0x134>
 8000974:	e1a05205 	lsl	r5, r5, #4
 8000978:	e1855e26 	orr	r5, r5, r6, lsr #28
 800097c:	e1a06206 	lsl	r6, r6, #4
 8000980:	e1a03183 	lsl	r3, r3, #3
 8000984:	e1833ea2 	orr	r3, r3, r2, lsr #29
 8000988:	e1a02182 	lsl	r2, r2, #3
 800098c:	e1b0c22c 	lsrs	ip, ip, #4
 8000990:	1affffdb 	bne	8000904 <__aeabi_ddiv+0x8c>
 8000994:	e3110601 	tst	r1, #1048576	; 0x100000
 8000998:	1a000006 	bne	80009b8 <__aeabi_ddiv+0x140>
 800099c:	e1811000 	orr	r1, r1, r0
 80009a0:	e3a00000 	mov	r0, #0
 80009a4:	e3a0c102 	mov	ip, #-2147483648	; 0x80000000
 80009a8:	eaffffd5 	b	8000904 <__aeabi_ddiv+0x8c>
 80009ac:	e3110601 	tst	r1, #1048576	; 0x100000
 80009b0:	01811000 	orreq	r1, r1, r0
 80009b4:	03a00000 	moveq	r0, #0
 80009b8:	e254c0fd 	subs	ip, r4, #253	; 0xfd
 80009bc:	835c0c07 	cmphi	ip, #1792	; 0x700
 80009c0:	8affff43 	bhi	80006d4 <__aeabi_dmul+0xec>
 80009c4:	e055c003 	subs	ip, r5, r3
 80009c8:	0056c002 	subseq	ip, r6, r2
 80009cc:	01b0c0a0 	lsrseq	ip, r0, #1
 80009d0:	e2b00000 	adcs	r0, r0, #0
 80009d4:	e0a11a04 	adc	r1, r1, r4, lsl #20
 80009d8:	e8bd4070 	pop	{r4, r5, r6, lr}
 80009dc:	e12fff1e 	bx	lr
 80009e0:	e20ee102 	and	lr, lr, #-2147483648	; 0x80000000
 80009e4:	e18e1621 	orr	r1, lr, r1, lsr #12
 80009e8:	e09440ac 	adds	r4, r4, ip, lsr #1
 80009ec:	c074500c 	rsbsgt	r5, r4, ip
 80009f0:	c1811a04 	orrgt	r1, r1, r4, lsl #20
 80009f4:	c8bd4070 	popgt	{r4, r5, r6, lr}
 80009f8:	c12fff1e 	bxgt	lr
 80009fc:	e3811601 	orr	r1, r1, #1048576	; 0x100000
 8000a00:	e3a0e000 	mov	lr, #0
 8000a04:	e2544001 	subs	r4, r4, #1
 8000a08:	eaffff31 	b	80006d4 <__aeabi_dmul+0xec>
 8000a0c:	e185e006 	orr	lr, r5, r6
 8000a10:	eaffff2f 	b	80006d4 <__aeabi_dmul+0xec>
 8000a14:	e00c5a23 	and	r5, ip, r3, lsr #20
 8000a18:	e134000c 	teq	r4, ip
 8000a1c:	0135000c 	teqeq	r5, ip
 8000a20:	0affff90 	beq	8000868 <__aeabi_dmul+0x280>
 8000a24:	e134000c 	teq	r4, ip
 8000a28:	1a000006 	bne	8000a48 <__aeabi_ddiv+0x1d0>
 8000a2c:	e1904601 	orrs	r4, r0, r1, lsl #12
 8000a30:	1affff8c 	bne	8000868 <__aeabi_dmul+0x280>
 8000a34:	e135000c 	teq	r5, ip
 8000a38:	1affff83 	bne	800084c <__aeabi_dmul+0x264>
 8000a3c:	e1a00002 	mov	r0, r2
 8000a40:	e1a01003 	mov	r1, r3
 8000a44:	eaffff87 	b	8000868 <__aeabi_dmul+0x280>
 8000a48:	e135000c 	teq	r5, ip
 8000a4c:	1a000004 	bne	8000a64 <__aeabi_ddiv+0x1ec>
 8000a50:	e1925603 	orrs	r5, r2, r3, lsl #12
 8000a54:	0affff68 	beq	80007fc <__aeabi_dmul+0x214>
 8000a58:	e1a00002 	mov	r0, r2
 8000a5c:	e1a01003 	mov	r1, r3
 8000a60:	eaffff80 	b	8000868 <__aeabi_dmul+0x280>
 8000a64:	e1906081 	orrs	r6, r0, r1, lsl #1
 8000a68:	11926083 	orrsne	r6, r2, r3, lsl #1
 8000a6c:	1affff48 	bne	8000794 <__aeabi_dmul+0x1ac>
 8000a70:	e1904081 	orrs	r4, r0, r1, lsl #1
 8000a74:	1affff74 	bne	800084c <__aeabi_dmul+0x264>
 8000a78:	e1925083 	orrs	r5, r2, r3, lsl #1
 8000a7c:	1affff5e 	bne	80007fc <__aeabi_dmul+0x214>
 8000a80:	eaffff78 	b	8000868 <__aeabi_dmul+0x280>

08000a84 <__aeabi_d2iz>:
 8000a84:	e1a02081 	lsl	r2, r1, #1
 8000a88:	e2922602 	adds	r2, r2, #2097152	; 0x200000
 8000a8c:	2a00000c 	bcs	8000ac4 <__aeabi_d2iz+0x40>
 8000a90:	5a000009 	bpl	8000abc <__aeabi_d2iz+0x38>
 8000a94:	e3e03e3e 	mvn	r3, #992	; 0x3e0
 8000a98:	e0532ac2 	subs	r2, r3, r2, asr #21
 8000a9c:	9a00000a 	bls	8000acc <__aeabi_d2iz+0x48>
 8000aa0:	e1a03581 	lsl	r3, r1, #11
 8000aa4:	e3833102 	orr	r3, r3, #-2147483648	; 0x80000000
 8000aa8:	e1833aa0 	orr	r3, r3, r0, lsr #21
 8000aac:	e3110102 	tst	r1, #-2147483648	; 0x80000000
 8000ab0:	e1a00233 	lsr	r0, r3, r2
 8000ab4:	12600000 	rsbne	r0, r0, #0
 8000ab8:	e12fff1e 	bx	lr
 8000abc:	e3a00000 	mov	r0, #0
 8000ac0:	e12fff1e 	bx	lr
 8000ac4:	e1900601 	orrs	r0, r0, r1, lsl #12
 8000ac8:	1a000002 	bne	8000ad8 <__aeabi_d2iz+0x54>
 8000acc:	e2110102 	ands	r0, r1, #-2147483648	; 0x80000000
 8000ad0:	03e00102 	mvneq	r0, #-2147483648	; 0x80000000
 8000ad4:	e12fff1e 	bx	lr
 8000ad8:	e3a00000 	mov	r0, #0
 8000adc:	e12fff1e 	bx	lr

Disassembly of section .text.startup:

08000ae0 <main>:
 8000ae0:	b510      	push	{r4, lr}
 8000ae2:	f7ff fae7 	bl	80000b4 <stm32_rcc_init>
 8000ae6:	2280      	movs	r2, #128	; 0x80
 8000ae8:	4b23      	ldr	r3, [pc, #140]	; (8000b78 <main+0x98>)
 8000aea:	0292      	lsls	r2, r2, #10
 8000aec:	69d9      	ldr	r1, [r3, #28]
 8000aee:	4311      	orrs	r1, r2
 8000af0:	61d9      	str	r1, [r3, #28]
 8000af2:	6959      	ldr	r1, [r3, #20]
 8000af4:	430a      	orrs	r2, r1
 8000af6:	615a      	str	r2, [r3, #20]
 8000af8:	2390      	movs	r3, #144	; 0x90
 8000afa:	2130      	movs	r1, #48	; 0x30
 8000afc:	05db      	lsls	r3, r3, #23
 8000afe:	681a      	ldr	r2, [r3, #0]
 8000b00:	438a      	bics	r2, r1
 8000b02:	3910      	subs	r1, #16
 8000b04:	430a      	orrs	r2, r1
 8000b06:	601a      	str	r2, [r3, #0]
 8000b08:	6a1a      	ldr	r2, [r3, #32]
 8000b0a:	491c      	ldr	r1, [pc, #112]	; (8000b7c <main+0x9c>)
 8000b0c:	4011      	ands	r1, r2
 8000b0e:	2280      	movs	r2, #128	; 0x80
 8000b10:	0052      	lsls	r2, r2, #1
 8000b12:	430a      	orrs	r2, r1
 8000b14:	21c0      	movs	r1, #192	; 0xc0
 8000b16:	621a      	str	r2, [r3, #32]
 8000b18:	681a      	ldr	r2, [r3, #0]
 8000b1a:	438a      	bics	r2, r1
 8000b1c:	3940      	subs	r1, #64	; 0x40
 8000b1e:	430a      	orrs	r2, r1
 8000b20:	601a      	str	r2, [r3, #0]
 8000b22:	6a1a      	ldr	r2, [r3, #32]
 8000b24:	4916      	ldr	r1, [pc, #88]	; (8000b80 <main+0xa0>)
 8000b26:	4011      	ands	r1, r2
 8000b28:	2280      	movs	r2, #128	; 0x80
 8000b2a:	0152      	lsls	r2, r2, #5
 8000b2c:	430a      	orrs	r2, r1
 8000b2e:	621a      	str	r2, [r3, #32]
 8000b30:	681a      	ldr	r2, [r3, #0]
 8000b32:	4914      	ldr	r1, [pc, #80]	; (8000b84 <main+0xa4>)
 8000b34:	400a      	ands	r2, r1
 8000b36:	601a      	str	r2, [r3, #0]
 8000b38:	2280      	movs	r2, #128	; 0x80
 8000b3a:	6819      	ldr	r1, [r3, #0]
 8000b3c:	00d2      	lsls	r2, r2, #3
 8000b3e:	430a      	orrs	r2, r1
 8000b40:	601a      	str	r2, [r3, #0]
 8000b42:	238b      	movs	r3, #139	; 0x8b
 8000b44:	210c      	movs	r1, #12
 8000b46:	4a10      	ldr	r2, [pc, #64]	; (8000b88 <main+0xa8>)
 8000b48:	005b      	lsls	r3, r3, #1
 8000b4a:	8193      	strh	r3, [r2, #12]
 8000b4c:	6813      	ldr	r3, [r2, #0]
 8000b4e:	430b      	orrs	r3, r1
 8000b50:	6013      	str	r3, [r2, #0]
 8000b52:	6813      	ldr	r3, [r2, #0]
 8000b54:	390b      	subs	r1, #11
 8000b56:	430b      	orrs	r3, r1
 8000b58:	6013      	str	r3, [r2, #0]
 8000b5a:	311f      	adds	r1, #31
 8000b5c:	69d3      	ldr	r3, [r2, #28]
 8000b5e:	4219      	tst	r1, r3
 8000b60:	d0fc      	beq.n	8000b5c <main+0x7c>
 8000b62:	8c93      	ldrh	r3, [r2, #36]	; 0x24
 8000b64:	b2db      	uxtb	r3, r3
 8000b66:	0018      	movs	r0, r3
 8000b68:	3861      	subs	r0, #97	; 0x61
 8000b6a:	2819      	cmp	r0, #25
 8000b6c:	d8f6      	bhi.n	8000b5c <main+0x7c>
 8000b6e:	3b20      	subs	r3, #32
 8000b70:	b2db      	uxtb	r3, r3
 8000b72:	8513      	strh	r3, [r2, #40]	; 0x28
 8000b74:	e7f2      	b.n	8000b5c <main+0x7c>
 8000b76:	46c0      	nop			; (mov r8, r8)
 8000b78:	40021000 	.word	0x40021000
 8000b7c:	fffff0ff 	.word	0xfffff0ff
 8000b80:	ffff0fff 	.word	0xffff0fff
 8000b84:	fffff3ff 	.word	0xfffff3ff
 8000b88:	40004400 	.word	0x40004400
